---
triple:          'arm64-apple-darwin'
binary-path:     foo_bar
relocations:
  - { offset: 0x5C, size: 0x8, addend: 0x0, symName: __ZNSt3__1L19piecewise_constructE, symObjAddr: 0x5EE2, symBinAddr: 0x100007B4A, symSize: 0x0 }
  - { offset: 0x39A2, size: 0x8, addend: 0x0, symName: '__ZNSt3__110__function10__not_nullB8ne180100IZ4mainE3$_0EEbRKT_', symObjAddr: 0xC20, symBinAddr: 0x100002684, symSize: 0x18 }
  - { offset: 0x39D3, size: 0x8, addend: 0x0, symName: '__ZNSt3__110__function10__not_nullB8ne180100IZ4mainE3$_1EEbRKT_', symObjAddr: 0x32EC, symBinAddr: 0x100004D50, symSize: 0x18 }
  - { offset: 0x54A7, size: 0x8, addend: 0x0, symName: __ZNSt3__124__put_character_sequenceB8ne180100IcNS_11char_traitsIcEEEERNS_13basic_ostreamIT_T0_EES7_PKS4_m, symObjAddr: 0x2450, symBinAddr: 0x100003EB4, symSize: 0x1EC }
  - { offset: 0x801B, size: 0x8, addend: 0x0, symName: __ZNSt3__125__throw_bad_function_callB8ne180100Ev, symObjAddr: 0x814, symBinAddr: 0x100002278, symSize: 0x38 }
  - { offset: 0x81FE, size: 0x8, addend: 0x0, symName: '__ZNSt3__116forward_as_tupleB8ne180100IJZ4mainE3$_0EEENS_5tupleIJDpOT_EEES5_', symObjAddr: 0x1190, symBinAddr: 0x100002BF4, symSize: 0x2C }
  - { offset: 0x8237, size: 0x8, addend: 0x0, symName: '__ZNSt3__116forward_as_tupleB8ne180100IJNS_9allocatorIZ4mainE3$_0EEEEENS_5tupleIJDpOT_EEES7_', symObjAddr: 0x11BC, symBinAddr: 0x100002C20, symSize: 0x2C }
  - { offset: 0x82B4, size: 0x8, addend: 0x0, symName: '__ZNSt3__13getB8ne180100ILm0EJOZ4mainE3$_0EEERNS_13tuple_elementIXT_ENS_5tupleIJDpT0_EEEE4typeERS7_', symObjAddr: 0x14D4, symBinAddr: 0x100002F38, symSize: 0x24 }
  - { offset: 0x82F6, size: 0x8, addend: 0x0, symName: '__ZNSt3__13getB8ne180100ILm0EJONS_9allocatorIZ4mainE3$_0EEEEERNS_13tuple_elementIXT_ENS_5tupleIJDpT0_EEEE4typeERS9_', symObjAddr: 0x1510, symBinAddr: 0x100002F74, symSize: 0x24 }
  - { offset: 0x8814, size: 0x8, addend: 0x0, symName: __ZNSt3__117__libcpp_allocateB8ne180100Emm, symObjAddr: 0x17F4, symBinAddr: 0x100003258, symSize: 0x28 }
  - { offset: 0x8851, size: 0x8, addend: 0x0, symName: __ZNSt3__121__libcpp_operator_newB8ne180100IJmEEEPvDpT_, symObjAddr: 0x1830, symBinAddr: 0x100003294, symSize: 0x24 }
  - { offset: 0x888A, size: 0x8, addend: 0x0, symName: '__ZNSt3__116forward_as_tupleB8ne180100IJRKZ4mainE3$_0EEENS_5tupleIJDpOT_EEES7_', symObjAddr: 0x1B2C, symBinAddr: 0x100003590, symSize: 0x2C }
  - { offset: 0x88D8, size: 0x8, addend: 0x0, symName: '__ZNSt3__13getB8ne180100ILm0EJRKZ4mainE3$_0EEERNS_13tuple_elementIXT_ENS_5tupleIJDpT0_EEEE4typeERS8_', symObjAddr: 0x1D1C, symBinAddr: 0x100003780, symSize: 0x24 }
  - { offset: 0x891A, size: 0x8, addend: 0x0, symName: __ZNSt3__119__libcpp_deallocateB8ne180100EPvmm, symObjAddr: 0x1F1C, symBinAddr: 0x100003980, symSize: 0x30 }
  - { offset: 0x8962, size: 0x8, addend: 0x0, symName: __ZNSt3__127__do_deallocate_handle_sizeB8ne180100IJEEEvPvmDpT_, symObjAddr: 0x1F4C, symBinAddr: 0x1000039B0, symSize: 0x28 }
  - { offset: 0x89A0, size: 0x8, addend: 0x0, symName: __ZNSt3__124__libcpp_operator_deleteB8ne180100IJPvEEEvDpT_, symObjAddr: 0x1F74, symBinAddr: 0x1000039D8, symSize: 0x24 }
  - { offset: 0x89D5, size: 0x8, addend: 0x0, symName: '__ZNSt3__116forward_as_tupleB8ne180100IJRKNS_9allocatorIZ4mainE3$_0EEEEENS_5tupleIJDpOT_EEES9_', symObjAddr: 0x20EC, symBinAddr: 0x100003B50, symSize: 0x2C }
  - { offset: 0x8A23, size: 0x8, addend: 0x0, symName: '__ZNSt3__13getB8ne180100ILm0EJRKNS_9allocatorIZ4mainE3$_0EEEEERNS_13tuple_elementIXT_ENS_5tupleIJDpT0_EEEE4typeERSA_', symObjAddr: 0x22D0, symBinAddr: 0x100003D34, symSize: 0x24 }
  - { offset: 0x8AB5, size: 0x8, addend: 0x0, symName: '__ZNSt3__18__invokeB8ne180100IRZ4mainE3$_0JEEEDTclclsr3stdE7declvalIT_EEspclsr3stdE7declvalIT0_EEEEOS3_DpOS4_', symObjAddr: 0x238C, symBinAddr: 0x100003DF0, symSize: 0x24 }
  - { offset: 0x8AED, size: 0x8, addend: 0x0, symName: __ZNSt3__1lsB8ne180100INS_11char_traitsIcEEEERNS_13basic_ostreamIcT_EES6_PKc, symObjAddr: 0x2408, symBinAddr: 0x100003E6C, symSize: 0x48 }
  - { offset: 0x8B33, size: 0x8, addend: 0x0, symName: __ZNSt3__116__pad_and_outputB8ne180100IcNS_11char_traitsIcEEEENS_19ostreambuf_iteratorIT_T0_EES6_PKS4_S8_S8_RNS_8ios_baseES4_, symObjAddr: 0x268C, symBinAddr: 0x1000040F0, symSize: 0x240 }
  - { offset: 0x8C02, size: 0x8, addend: 0x0, symName: __ZNSt3__112__to_addressB8ne180100IKcEEPT_S3_, symObjAddr: 0x2BF4, symBinAddr: 0x100004658, symSize: 0x14 }
  - { offset: 0x8C6A, size: 0x8, addend: 0x0, symName: __ZNSt3__19use_facetB8ne180100INS_5ctypeIcEEEERKT_RKNS_6localeE, symObjAddr: 0x2E74, symBinAddr: 0x1000048D8, symSize: 0x2C }
  - { offset: 0x9138, size: 0x8, addend: 0x0, symName: __ZNSt3__118__constexpr_strlenB8ne180100EPKc, symObjAddr: 0x2F0C, symBinAddr: 0x100004970, symSize: 0x24 }
  - { offset: 0x92C7, size: 0x8, addend: 0x0, symName: '__ZNSt3__116forward_as_tupleB8ne180100IJZ4mainE3$_1EEENS_5tupleIJDpOT_EEES5_', symObjAddr: 0x3804, symBinAddr: 0x100005268, symSize: 0x2C }
  - { offset: 0x9300, size: 0x8, addend: 0x0, symName: '__ZNSt3__116forward_as_tupleB8ne180100IJNS_9allocatorIZ4mainE3$_1EEEEENS_5tupleIJDpOT_EEES7_', symObjAddr: 0x3830, symBinAddr: 0x100005294, symSize: 0x2C }
  - { offset: 0x9363, size: 0x8, addend: 0x0, symName: '__ZNSt3__13getB8ne180100ILm0EJOZ4mainE3$_1EEERNS_13tuple_elementIXT_ENS_5tupleIJDpT0_EEEE4typeERS7_', symObjAddr: 0x3B48, symBinAddr: 0x1000055AC, symSize: 0x24 }
  - { offset: 0x93A5, size: 0x8, addend: 0x0, symName: '__ZNSt3__13getB8ne180100ILm0EJONS_9allocatorIZ4mainE3$_1EEEEERNS_13tuple_elementIXT_ENS_5tupleIJDpT0_EEEE4typeERS9_', symObjAddr: 0x3B84, symBinAddr: 0x1000055E8, symSize: 0x24 }
  - { offset: 0x98C3, size: 0x8, addend: 0x0, symName: '__ZNSt3__116forward_as_tupleB8ne180100IJRKZ4mainE3$_1EEENS_5tupleIJDpOT_EEES7_', symObjAddr: 0x4110, symBinAddr: 0x100005B74, symSize: 0x2C }
  - { offset: 0x9911, size: 0x8, addend: 0x0, symName: '__ZNSt3__13getB8ne180100ILm0EJRKZ4mainE3$_1EEERNS_13tuple_elementIXT_ENS_5tupleIJDpT0_EEEE4typeERS8_', symObjAddr: 0x4300, symBinAddr: 0x100005D64, symSize: 0x24 }
  - { offset: 0x9953, size: 0x8, addend: 0x0, symName: '__ZNSt3__116forward_as_tupleB8ne180100IJRKNS_9allocatorIZ4mainE3$_1EEEEENS_5tupleIJDpOT_EEES9_', symObjAddr: 0x4654, symBinAddr: 0x1000060B8, symSize: 0x2C }
  - { offset: 0x99A1, size: 0x8, addend: 0x0, symName: '__ZNSt3__13getB8ne180100ILm0EJRKNS_9allocatorIZ4mainE3$_1EEEEERNS_13tuple_elementIXT_ENS_5tupleIJDpT0_EEEE4typeERSA_', symObjAddr: 0x4838, symBinAddr: 0x10000629C, symSize: 0x24 }
  - { offset: 0x99E3, size: 0x8, addend: 0x0, symName: '__ZNSt3__18__invokeB8ne180100IRZ4mainE3$_1JEEEDTclclsr3stdE7declvalIT_EEspclsr3stdE7declvalIT0_EEEEOS3_DpOS4_', symObjAddr: 0x48F4, symBinAddr: 0x100006358, symSize: 0x24 }
  - { offset: 0x9E10, size: 0x8, addend: 0x0, symName: __ZNSt3__122__libcpp_thread_createB8ne180100EPP17_opaque_pthread_tPFPvS3_ES3_, symObjAddr: 0x4BB0, symBinAddr: 0x100006614, symSize: 0x38 }
  - { offset: 0x9E5C, size: 0x8, addend: 0x0, symName: __ZNSt3__114__thread_proxyB8ne180100INS_5tupleIJNS_10unique_ptrINS_15__thread_structENS_14default_deleteIS3_EEEEM6FooBarFvNS_8functionIFvvEEEEPS7_SA_EEEEEPvSF_, symObjAddr: 0x4BE8, symBinAddr: 0x10000664C, symSize: 0x90 }
  - { offset: 0x9FAB, size: 0x8, addend: 0x0, symName: __ZNSt3__13getB8ne180100ILm0EJNS_10unique_ptrINS_15__thread_structENS_14default_deleteIS2_EEEEM6FooBarFvNS_8functionIFvvEEEEPS6_S9_EEERNS_13tuple_elementIXT_ENS_5tupleIJDpT0_EEEE4typeERSH_, symObjAddr: 0x5508, symBinAddr: 0x100006F6C, symSize: 0x24 }
  - { offset: 0x9FFE, size: 0x8, addend: 0x0, symName: __ZNSt3__116__thread_executeB8ne180100INS_10unique_ptrINS_15__thread_structENS_14default_deleteIS2_EEEEM6FooBarFvNS_8functionIFvvEEEEJPS6_S9_EJLm2ELm3EEEEvRNS_5tupleIJT_T0_DpT1_EEENS_15__tuple_indicesIJXspT2_EEEE, symObjAddr: 0x552C, symBinAddr: 0x100006F90, symSize: 0x4C }
  - { offset: 0xA064, size: 0x8, addend: 0x0, symName: __ZNSt3__116__libcpp_tls_setB8ne180100EmPv, symObjAddr: 0x5578, symBinAddr: 0x100006FDC, symSize: 0x2C }
  - { offset: 0xA0A1, size: 0x8, addend: 0x0, symName: __ZNSt3__18__invokeB8ne180100IM6FooBarFvNS_8functionIFvvEEEEPS1_JS4_EvEEDTcldsdeclsr3stdE7declvalIT0_EEclsr3stdE7declvalIT_EEspclsr3stdE7declvalIT1_EEEEOS9_OS8_DpOSA_, symObjAddr: 0x55B8, symBinAddr: 0x10000701C, symSize: 0x110 }
  - { offset: 0xA108, size: 0x8, addend: 0x0, symName: __ZNSt3__13getB8ne180100ILm1EJNS_10unique_ptrINS_15__thread_structENS_14default_deleteIS2_EEEEM6FooBarFvNS_8functionIFvvEEEEPS6_S9_EEERNS_13tuple_elementIXT_ENS_5tupleIJDpT0_EEEE4typeERSH_, symObjAddr: 0x56C8, symBinAddr: 0x10000712C, symSize: 0x28 }
  - { offset: 0xA15A, size: 0x8, addend: 0x0, symName: __ZNSt3__13getB8ne180100ILm2EJNS_10unique_ptrINS_15__thread_structENS_14default_deleteIS2_EEEEM6FooBarFvNS_8functionIFvvEEEEPS6_S9_EEERNS_13tuple_elementIXT_ENS_5tupleIJDpT0_EEEE4typeERSH_, symObjAddr: 0x56F0, symBinAddr: 0x100007154, symSize: 0x28 }
  - { offset: 0xA1AC, size: 0x8, addend: 0x0, symName: __ZNSt3__13getB8ne180100ILm3EJNS_10unique_ptrINS_15__thread_structENS_14default_deleteIS2_EEEEM6FooBarFvNS_8functionIFvvEEEEPS6_S9_EEERNS_13tuple_elementIXT_ENS_5tupleIJDpT0_EEEE4typeERSH_, symObjAddr: 0x5718, symBinAddr: 0x10000717C, symSize: 0x28 }
  - { offset: 0xB2A2, size: 0x8, addend: 0x0, symName: __ZSt28__throw_bad_array_new_lengthB8ne180100v, symObjAddr: 0x17C0, symBinAddr: 0x100003224, symSize: 0x34 }
  - { offset: 0xB699, size: 0x8, addend: 0x0, symName: _main, symObjAddr: 0x0, symBinAddr: 0x100001A64, symSize: 0x1FC }
  - { offset: 0xC1A2, size: 0x8, addend: 0x0, symName: __ZN6FooBarC1Ei, symObjAddr: 0x1FC, symBinAddr: 0x100001C60, symSize: 0x34 }
  - { offset: 0xC1DA, size: 0x8, addend: 0x0, symName: '__ZNSt3__18functionIFvvEEC1IZ4mainE3$_0vEET_', symObjAddr: 0x230, symBinAddr: 0x100001C94, symSize: 0x34 }
  - { offset: 0xC21F, size: 0x8, addend: 0x0, symName: '__ZNSt3__18functionIFvvEEC1IZ4mainE3$_1vEET_', symObjAddr: 0x264, symBinAddr: 0x100001CC8, symSize: 0x34 }
  - { offset: 0xC264, size: 0x8, addend: 0x0, symName: __ZN6FooBar3fooENSt3__18functionIFvvEEE, symObjAddr: 0x298, symBinAddr: 0x100001CFC, symSize: 0xE8 }
  - { offset: 0xC3BB, size: 0x8, addend: 0x0, symName: __ZNSt3__16threadC1IM6FooBarFvNS_8functionIFvvEEEEJPS2_RS5_EvEEOT_DpOT0_, symObjAddr: 0x380, symBinAddr: 0x100001DE4, symSize: 0x44 }
  - { offset: 0xC429, size: 0x8, addend: 0x0, symName: __ZN6FooBar3barENSt3__18functionIFvvEEE, symObjAddr: 0x3C4, symBinAddr: 0x100001E28, symSize: 0xEC }
  - { offset: 0xC4AE, size: 0x8, addend: 0x0, symName: __ZNSt3__18functionIFvvEED1Ev, symObjAddr: 0x4B0, symBinAddr: 0x100001F14, symSize: 0x2C }
  - { offset: 0xC4DA, size: 0x8, addend: 0x0, symName: __ZN6FooBarD1Ev, symObjAddr: 0x4DC, symBinAddr: 0x100001F40, symSize: 0x2C }
  - { offset: 0xC506, size: 0x8, addend: 0x0, symName: __ZN6FooBarC2Ei, symObjAddr: 0x508, symBinAddr: 0x100001F6C, symSize: 0x50 }
  - { offset: 0xC53E, size: 0x8, addend: 0x0, symName: __ZNSt3__15mutexC1B8ne180100Ev, symObjAddr: 0x558, symBinAddr: 0x100001FBC, symSize: 0x2C }
  - { offset: 0xC568, size: 0x8, addend: 0x0, symName: __ZNSt3__118condition_variableC1B8ne180100Ev, symObjAddr: 0x584, symBinAddr: 0x100001FE8, symSize: 0x2C }
  - { offset: 0xC592, size: 0x8, addend: 0x0, symName: __ZNSt3__15mutexC2B8ne180100Ev, symObjAddr: 0x5B0, symBinAddr: 0x100002014, symSize: 0x44 }
  - { offset: 0xC5BC, size: 0x8, addend: 0x0, symName: __ZNSt3__118condition_variableC2B8ne180100Ev, symObjAddr: 0x5F4, symBinAddr: 0x100002058, symSize: 0x44 }
  - { offset: 0xC5E6, size: 0x8, addend: 0x0, symName: __ZNSt3__111unique_lockINS_5mutexEEC1B8ne180100ERS1_, symObjAddr: 0x638, symBinAddr: 0x10000209C, symSize: 0x34 }
  - { offset: 0xC629, size: 0x8, addend: 0x0, symName: __ZNSt3__118condition_variable4waitIZN6FooBar3fooENS_8functionIFvvEEEEUlvE_EEvRNS_11unique_lockINS_5mutexEEET_, symObjAddr: 0x66C, symBinAddr: 0x1000020D0, symSize: 0x50 }
  - { offset: 0xC674, size: 0x8, addend: 0x0, symName: __ZNKSt3__18functionIFvvEEclEv, symObjAddr: 0x6BC, symBinAddr: 0x100002120, symSize: 0x24 }
  - { offset: 0xC69C, size: 0x8, addend: 0x0, symName: __ZNSt3__111unique_lockINS_5mutexEE6unlockEv, symObjAddr: 0x6E0, symBinAddr: 0x100002144, symSize: 0x54 }
  - { offset: 0xC6C3, size: 0x8, addend: 0x0, symName: __ZNSt3__111unique_lockINS_5mutexEED1B8ne180100Ev, symObjAddr: 0x734, symBinAddr: 0x100002198, symSize: 0x2C }
  - { offset: 0xC6ED, size: 0x8, addend: 0x0, symName: __ZNSt3__111unique_lockINS_5mutexEEC2B8ne180100ERS1_, symObjAddr: 0x760, symBinAddr: 0x1000021C4, symSize: 0x44 }
  - { offset: 0xC725, size: 0x8, addend: 0x0, symName: __ZZN6FooBar3fooENSt3__18functionIFvvEEEENKUlvE_clEv, symObjAddr: 0x7A4, symBinAddr: 0x100002208, symSize: 0x20 }
  - { offset: 0xC74F, size: 0x8, addend: 0x0, symName: __ZNKSt3__110__function12__value_funcIFvvEEclB8ne180100Ev, symObjAddr: 0x7C4, symBinAddr: 0x100002228, symSize: 0x50 }
  - { offset: 0xC7A9, size: 0x8, addend: 0x0, symName: __ZNSt3__117bad_function_callC1B8ne180100Ev, symObjAddr: 0x84C, symBinAddr: 0x1000022B0, symSize: 0x2C }
  - { offset: 0xC7D3, size: 0x8, addend: 0x0, symName: __ZNSt3__117bad_function_callD1Ev, symObjAddr: 0x878, symBinAddr: 0x1000022DC, symSize: 0x2C }
  - { offset: 0xC7FD, size: 0x8, addend: 0x0, symName: __ZNSt3__117bad_function_callC2B8ne180100Ev, symObjAddr: 0x8A4, symBinAddr: 0x100002308, symSize: 0x3C }
  - { offset: 0xC827, size: 0x8, addend: 0x0, symName: __ZNSt9exceptionC2B8ne180100Ev, symObjAddr: 0x8E0, symBinAddr: 0x100002344, symSize: 0x24 }
  - { offset: 0xC851, size: 0x8, addend: 0x0, symName: __ZNSt3__117bad_function_callD0Ev, symObjAddr: 0x904, symBinAddr: 0x100002368, symSize: 0x30 }
  - { offset: 0xC87B, size: 0x8, addend: 0x0, symName: __ZNSt3__117bad_function_callD2Ev, symObjAddr: 0x934, symBinAddr: 0x100002398, symSize: 0x2C }
  - { offset: 0xC8A5, size: 0x8, addend: 0x0, symName: __ZNSt3__111unique_lockINS_5mutexEED2B8ne180100Ev, symObjAddr: 0x960, symBinAddr: 0x1000023C4, symSize: 0x4C }
  - { offset: 0xC8DA, size: 0x8, addend: 0x0, symName: __ZNSt3__118condition_variable4waitIZN6FooBar3barENS_8functionIFvvEEEEUlvE_EEvRNS_11unique_lockINS_5mutexEEET_, symObjAddr: 0x9AC, symBinAddr: 0x100002410, symSize: 0x50 }
  - { offset: 0xC925, size: 0x8, addend: 0x0, symName: __ZZN6FooBar3barENSt3__18functionIFvvEEEENKUlvE_clEv, symObjAddr: 0x9FC, symBinAddr: 0x100002460, symSize: 0x24 }
  - { offset: 0xC94F, size: 0x8, addend: 0x0, symName: __ZN6FooBarD2Ev, symObjAddr: 0xA20, symBinAddr: 0x100002484, symSize: 0x3C }
  - { offset: 0xC97B, size: 0x8, addend: 0x0, symName: '__ZNSt3__18functionIFvvEEC2IZ4mainE3$_0vEET_', symObjAddr: 0xA5C, symBinAddr: 0x1000024C0, symSize: 0x38 }
  - { offset: 0xC9C0, size: 0x8, addend: 0x0, symName: '__ZNSt3__110__function12__value_funcIFvvEEC1B8ne180100IZ4mainE3$_0Li0EEEOT_', symObjAddr: 0xA94, symBinAddr: 0x1000024F8, symSize: 0x50 }
  - { offset: 0xCA08, size: 0x8, addend: 0x0, symName: '__ZNSt3__19allocatorIZ4mainE3$_0EC1B8ne180100Ev', symObjAddr: 0xAE4, symBinAddr: 0x100002548, symSize: 0x2C }
  - { offset: 0xCA32, size: 0x8, addend: 0x0, symName: '__ZNSt3__110__function12__value_funcIFvvEEC1B8ne180100IZ4mainE3$_0NS_9allocatorIS5_EEEEOT_RKT0_', symObjAddr: 0xB10, symBinAddr: 0x100002574, symSize: 0x3C }
  - { offset: 0xCA8C, size: 0x8, addend: 0x0, symName: '__ZNSt3__19allocatorIZ4mainE3$_0EC2B8ne180100Ev', symObjAddr: 0xB4C, symBinAddr: 0x1000025B0, symSize: 0x2C }
  - { offset: 0xCAB6, size: 0x8, addend: 0x0, symName: '__ZNSt3__116__non_trivial_ifILb1ENS_9allocatorIZ4mainE3$_0EEEC2B8ne180100Ev', symObjAddr: 0xB78, symBinAddr: 0x1000025DC, symSize: 0x14 }
  - { offset: 0xCAE0, size: 0x8, addend: 0x0, symName: '__ZNSt3__110__function12__value_funcIFvvEEC2B8ne180100IZ4mainE3$_0NS_9allocatorIS5_EEEEOT_RKT0_', symObjAddr: 0xB8C, symBinAddr: 0x1000025F0, symSize: 0x94 }
  - { offset: 0xCB8D, size: 0x8, addend: 0x0, symName: '__ZNSt3__19allocatorINS_10__function6__funcIZ4mainE3$_0NS0_IS3_EEFvvEEEEC1B8ne180100IS3_EERKNS0_IT_EE', symObjAddr: 0xC38, symBinAddr: 0x10000269C, symSize: 0x34 }
  - { offset: 0xCBD0, size: 0x8, addend: 0x0, symName: '__ZNSt3__19allocatorIZ4mainE3$_0EC1B8ne180100INS_10__function6__funcIS1_S2_FvvEEEEERKNS0_IT_EE', symObjAddr: 0xC6C, symBinAddr: 0x1000026D0, symSize: 0x34 }
  - { offset: 0xCC0D, size: 0x8, addend: 0x0, symName: '__ZNSt3__110__function6__funcIZ4mainE3$_0NS_9allocatorIS2_EEFvvEEC1B8ne180100EOS2_OS4_', symObjAddr: 0xCA0, symBinAddr: 0x100002704, symSize: 0x3C }
  - { offset: 0xCC55, size: 0x8, addend: 0x0, symName: '__ZNSt3__19allocatorINS_10__function6__funcIZ4mainE3$_0NS0_IS3_EEFvvEEEEC2B8ne180100IS3_EERKNS0_IT_EE', symObjAddr: 0xCDC, symBinAddr: 0x100002740, symSize: 0x30 }
  - { offset: 0xCC92, size: 0x8, addend: 0x0, symName: '__ZNSt3__116__non_trivial_ifILb1ENS_9allocatorINS_10__function6__funcIZ4mainE3$_0NS1_IS4_EEFvvEEEEEEC2B8ne180100Ev', symObjAddr: 0xD0C, symBinAddr: 0x100002770, symSize: 0x14 }
  - { offset: 0xCCBC, size: 0x8, addend: 0x0, symName: '__ZNSt3__19allocatorIZ4mainE3$_0EC2B8ne180100INS_10__function6__funcIS1_S2_FvvEEEEERKNS0_IT_EE', symObjAddr: 0xD20, symBinAddr: 0x100002784, symSize: 0x30 }
  - { offset: 0xCCF9, size: 0x8, addend: 0x0, symName: '__ZNSt3__110__function6__funcIZ4mainE3$_0NS_9allocatorIS2_EEFvvEEC2B8ne180100EOS2_OS4_', symObjAddr: 0xD50, symBinAddr: 0x1000027B4, symSize: 0x80 }
  - { offset: 0xCD41, size: 0x8, addend: 0x0, symName: __ZNSt3__110__function6__baseIFvvEEC2B8ne180100Ev, symObjAddr: 0xDD0, symBinAddr: 0x100002834, symSize: 0x24 }
  - { offset: 0xCD6B, size: 0x8, addend: 0x0, symName: '__ZNSt3__110__function12__alloc_funcIZ4mainE3$_0NS_9allocatorIS2_EEFvvEEC1B8ne180100EOS2_OS4_', symObjAddr: 0xDF4, symBinAddr: 0x100002858, symSize: 0x3C }
  - { offset: 0xCDB1, size: 0x8, addend: 0x0, symName: __ZNSt3__110__function6__baseIFvvEED2Ev, symObjAddr: 0xE30, symBinAddr: 0x100002894, symSize: 0x14 }
  - { offset: 0xCDDB, size: 0x8, addend: 0x0, symName: '__ZNSt3__110__function6__funcIZ4mainE3$_0NS_9allocatorIS2_EEFvvEED1Ev', symObjAddr: 0xE44, symBinAddr: 0x1000028A8, symSize: 0x2C }
  - { offset: 0xCE07, size: 0x8, addend: 0x0, symName: '__ZNSt3__110__function6__funcIZ4mainE3$_0NS_9allocatorIS2_EEFvvEED0Ev', symObjAddr: 0xE70, symBinAddr: 0x1000028D4, symSize: 0x30 }
  - { offset: 0xCE33, size: 0x8, addend: 0x0, symName: '__ZNKSt3__110__function6__funcIZ4mainE3$_0NS_9allocatorIS2_EEFvvEE7__cloneEv', symObjAddr: 0xEA0, symBinAddr: 0x100002904, symSize: 0xFC }
  - { offset: 0xCE85, size: 0x8, addend: 0x0, symName: '__ZNKSt3__110__function6__funcIZ4mainE3$_0NS_9allocatorIS2_EEFvvEE7__cloneEPNS0_6__baseIS5_EE', symObjAddr: 0xF9C, symBinAddr: 0x100002A00, symSize: 0x58 }
  - { offset: 0xCEBC, size: 0x8, addend: 0x0, symName: '__ZNSt3__110__function6__funcIZ4mainE3$_0NS_9allocatorIS2_EEFvvEE7destroyEv', symObjAddr: 0xFF4, symBinAddr: 0x100002A58, symSize: 0x28 }
  - { offset: 0xCEE4, size: 0x8, addend: 0x0, symName: '__ZNSt3__110__function6__funcIZ4mainE3$_0NS_9allocatorIS2_EEFvvEE18destroy_deallocateEv', symObjAddr: 0x101C, symBinAddr: 0x100002A80, symSize: 0x58 }
  - { offset: 0xCF27, size: 0x8, addend: 0x0, symName: '__ZNSt3__110__function6__funcIZ4mainE3$_0NS_9allocatorIS2_EEFvvEEclEv', symObjAddr: 0x1074, symBinAddr: 0x100002AD8, symSize: 0x28 }
  - { offset: 0xCF4F, size: 0x8, addend: 0x0, symName: '__ZNKSt3__110__function6__funcIZ4mainE3$_0NS_9allocatorIS2_EEFvvEE6targetERKSt9type_info', symObjAddr: 0x109C, symBinAddr: 0x100002B00, symSize: 0x60 }
  - { offset: 0xCF86, size: 0x8, addend: 0x0, symName: '__ZNKSt3__110__function6__funcIZ4mainE3$_0NS_9allocatorIS2_EEFvvEE11target_typeEv', symObjAddr: 0x10FC, symBinAddr: 0x100002B60, symSize: 0x18 }
  - { offset: 0xCFAE, size: 0x8, addend: 0x0, symName: __ZNSt3__110__function6__baseIFvvEED1Ev, symObjAddr: 0x1114, symBinAddr: 0x100002B78, symSize: 0x14 }
  - { offset: 0xCFD8, size: 0x8, addend: 0x0, symName: __ZNSt3__110__function6__baseIFvvEED0Ev, symObjAddr: 0x1128, symBinAddr: 0x100002B8C, symSize: 0xC }
  - { offset: 0xD002, size: 0x8, addend: 0x0, symName: '__ZNSt3__110__function12__alloc_funcIZ4mainE3$_0NS_9allocatorIS2_EEFvvEEC2B8ne180100EOS2_OS4_', symObjAddr: 0x1134, symBinAddr: 0x100002B98, symSize: 0x5C }
  - { offset: 0xD048, size: 0x8, addend: 0x0, symName: '__ZNSt3__117__compressed_pairIZ4mainE3$_0NS_9allocatorIS1_EEEC1B8ne180100IJOS1_EJOS3_EEENS_21piecewise_construct_tENS_5tupleIJDpT_EEENS9_IJDpT0_EEE', symObjAddr: 0x11E8, symBinAddr: 0x100002C4C, symSize: 0x3C }
  - { offset: 0xD0B2, size: 0x8, addend: 0x0, symName: '__ZNSt3__15tupleIJOZ4mainE3$_0EEC1B8ne180100IJS1_ELi0EEEDpOT_', symObjAddr: 0x1224, symBinAddr: 0x100002C88, symSize: 0x34 }
  - { offset: 0xD0FC, size: 0x8, addend: 0x0, symName: '__ZNSt3__15tupleIJOZ4mainE3$_0EEC2B8ne180100IJS1_ELi0EEEDpOT_', symObjAddr: 0x1258, symBinAddr: 0x100002CBC, symSize: 0x34 }
  - { offset: 0xD146, size: 0x8, addend: 0x0, symName: '__ZNSt3__112__tuple_implINS_15__tuple_indicesIJLm0EEEEJOZ4mainE3$_0EEC1B8ne180100IJLm0EEJS4_EJEJEJS3_EEENS1_IJXspT_EEEENS_13__tuple_typesIJDpT0_EEENS1_IJXspT1_EEEENS8_IJDpT2_EEEDpOT3_', symObjAddr: 0x128C, symBinAddr: 0x100002CF0, symSize: 0x34 }
  - { offset: 0xD1DB, size: 0x8, addend: 0x0, symName: '__ZNSt3__112__tuple_implINS_15__tuple_indicesIJLm0EEEEJOZ4mainE3$_0EEC2B8ne180100IJLm0EEJS4_EJEJEJS3_EEENS1_IJXspT_EEEENS_13__tuple_typesIJDpT0_EEENS1_IJXspT1_EEEENS8_IJDpT2_EEEDpOT3_', symObjAddr: 0x12C0, symBinAddr: 0x100002D24, symSize: 0x34 }
  - { offset: 0xD270, size: 0x8, addend: 0x0, symName: '__ZNSt3__112__tuple_leafILm0EOZ4mainE3$_0Lb0EEC2B8ne180100IS1_vEEOT_', symObjAddr: 0x12F4, symBinAddr: 0x100002D58, symSize: 0x20 }
  - { offset: 0xD2B3, size: 0x8, addend: 0x0, symName: '__ZNSt3__15tupleIJONS_9allocatorIZ4mainE3$_0EEEEC1B8ne180100IJS3_ELi0EEEDpOT_', symObjAddr: 0x1314, symBinAddr: 0x100002D78, symSize: 0x34 }
  - { offset: 0xD2FD, size: 0x8, addend: 0x0, symName: '__ZNSt3__15tupleIJONS_9allocatorIZ4mainE3$_0EEEEC2B8ne180100IJS3_ELi0EEEDpOT_', symObjAddr: 0x1348, symBinAddr: 0x100002DAC, symSize: 0x34 }
  - { offset: 0xD347, size: 0x8, addend: 0x0, symName: '__ZNSt3__112__tuple_implINS_15__tuple_indicesIJLm0EEEEJONS_9allocatorIZ4mainE3$_0EEEEC1B8ne180100IJLm0EEJS6_EJEJEJS5_EEENS1_IJXspT_EEEENS_13__tuple_typesIJDpT0_EEENS1_IJXspT1_EEEENSA_IJDpT2_EEEDpOT3_', symObjAddr: 0x137C, symBinAddr: 0x100002DE0, symSize: 0x34 }
  - { offset: 0xD3DC, size: 0x8, addend: 0x0, symName: '__ZNSt3__112__tuple_implINS_15__tuple_indicesIJLm0EEEEJONS_9allocatorIZ4mainE3$_0EEEEC2B8ne180100IJLm0EEJS6_EJEJEJS5_EEENS1_IJXspT_EEEENS_13__tuple_typesIJDpT0_EEENS1_IJXspT1_EEEENSA_IJDpT2_EEEDpOT3_', symObjAddr: 0x13B0, symBinAddr: 0x100002E14, symSize: 0x34 }
  - { offset: 0xD471, size: 0x8, addend: 0x0, symName: '__ZNSt3__112__tuple_leafILm0EONS_9allocatorIZ4mainE3$_0EELb0EEC2B8ne180100IS3_vEEOT_', symObjAddr: 0x13E4, symBinAddr: 0x100002E48, symSize: 0x20 }
  - { offset: 0xD4B4, size: 0x8, addend: 0x0, symName: '__ZNSt3__117__compressed_pairIZ4mainE3$_0NS_9allocatorIS1_EEEC2B8ne180100IJOS1_EJOS3_EEENS_21piecewise_construct_tENS_5tupleIJDpT_EEENS9_IJDpT0_EEE', symObjAddr: 0x1404, symBinAddr: 0x100002E68, symSize: 0x54 }
  - { offset: 0xD51E, size: 0x8, addend: 0x0, symName: '__ZNSt3__122__compressed_pair_elemIZ4mainE3$_0Li0ELb0EEC2B8ne180100IJOS1_EJLm0EEEENS_21piecewise_construct_tENS_5tupleIJDpT_EEENS_15__tuple_indicesIJXspT0_EEEE', symObjAddr: 0x1458, symBinAddr: 0x100002EBC, symSize: 0x44 }
  - { offset: 0xD581, size: 0x8, addend: 0x0, symName: '__ZNSt3__122__compressed_pair_elemINS_9allocatorIZ4mainE3$_0EELi1ELb1EEC2B8ne180100IJOS3_EJLm0EEEENS_21piecewise_construct_tENS_5tupleIJDpT_EEENS_15__tuple_indicesIJXspT0_EEEE', symObjAddr: 0x149C, symBinAddr: 0x100002F00, symSize: 0x38 }
  - { offset: 0xD5E4, size: 0x8, addend: 0x0, symName: '__ZNSt3__112__tuple_leafILm0EOZ4mainE3$_0Lb0EE3getB8ne180100Ev', symObjAddr: 0x14F8, symBinAddr: 0x100002F5C, symSize: 0x18 }
  - { offset: 0xD60A, size: 0x8, addend: 0x0, symName: '__ZNSt3__112__tuple_leafILm0EONS_9allocatorIZ4mainE3$_0EELb0EE3getB8ne180100Ev', symObjAddr: 0x1534, symBinAddr: 0x100002F98, symSize: 0x18 }
  - { offset: 0xD630, size: 0x8, addend: 0x0, symName: '__ZNSt3__110__function6__funcIZ4mainE3$_0NS_9allocatorIS2_EEFvvEED2Ev', symObjAddr: 0x154C, symBinAddr: 0x100002FB0, symSize: 0x2C }
  - { offset: 0xD65C, size: 0x8, addend: 0x0, symName: '__ZNKSt3__110__function12__alloc_funcIZ4mainE3$_0NS_9allocatorIS2_EEFvvEE15__get_allocatorB8ne180100Ev', symObjAddr: 0x1578, symBinAddr: 0x100002FDC, symSize: 0x24 }
  - { offset: 0xD682, size: 0x8, addend: 0x0, symName: '__ZNSt3__19allocatorINS_10__function6__funcIZ4mainE3$_0NS0_IS3_EEFvvEEEE8allocateB8ne180100Em', symObjAddr: 0x159C, symBinAddr: 0x100003000, symSize: 0x58 }
  - { offset: 0xD6C8, size: 0x8, addend: 0x0, symName: '__ZNSt3__122__allocator_destructorINS_9allocatorINS_10__function6__funcIZ4mainE3$_0NS1_IS4_EEFvvEEEEEEC1B8ne180100ERS8_m', symObjAddr: 0x15F4, symBinAddr: 0x100003058, symSize: 0x3C }
  - { offset: 0xD7AF, size: 0x8, addend: 0x0, symName: '__ZNSt3__110unique_ptrINS_10__function6__funcIZ4mainE3$_0NS_9allocatorIS3_EEFvvEEENS_22__allocator_destructorINS4_IS7_EEEEEC1B8ne180100ILb1EvEEPS7_NS_16__dependent_typeINS_27__unique_ptr_deleter_sfinaeISA_EEXT_EE20__good_rval_ref_typeE', symObjAddr: 0x1630, symBinAddr: 0x100003094, symSize: 0x3C }
  - { offset: 0xD800, size: 0x8, addend: 0x0, symName: '__ZNKSt3__110unique_ptrINS_10__function6__funcIZ4mainE3$_0NS_9allocatorIS3_EEFvvEEENS_22__allocator_destructorINS4_IS7_EEEEE3getB8ne180100Ev', symObjAddr: 0x166C, symBinAddr: 0x1000030D0, symSize: 0x28 }
  - { offset: 0xD826, size: 0x8, addend: 0x0, symName: '__ZNKSt3__110__function12__alloc_funcIZ4mainE3$_0NS_9allocatorIS2_EEFvvEE8__targetB8ne180100Ev', symObjAddr: 0x1694, symBinAddr: 0x1000030F8, symSize: 0x24 }
  - { offset: 0xD84C, size: 0x8, addend: 0x0, symName: '__ZNSt3__110__function6__funcIZ4mainE3$_0NS_9allocatorIS2_EEFvvEEC1B8ne180100ERKS2_OS4_', symObjAddr: 0x16B8, symBinAddr: 0x10000311C, symSize: 0x3C }
  - { offset: 0xD894, size: 0x8, addend: 0x0, symName: '__ZNSt3__110unique_ptrINS_10__function6__funcIZ4mainE3$_0NS_9allocatorIS3_EEFvvEEENS_22__allocator_destructorINS4_IS7_EEEEE7releaseB8ne180100Ev', symObjAddr: 0x16F4, symBinAddr: 0x100003158, symSize: 0x44 }
  - { offset: 0xD8C9, size: 0x8, addend: 0x0, symName: '__ZNSt3__110unique_ptrINS_10__function6__funcIZ4mainE3$_0NS_9allocatorIS3_EEFvvEEENS_22__allocator_destructorINS4_IS7_EEEEED1B8ne180100Ev', symObjAddr: 0x1738, symBinAddr: 0x10000319C, symSize: 0x2C }
  - { offset: 0xD8F3, size: 0x8, addend: 0x0, symName: '__ZNKSt3__117__compressed_pairIZ4mainE3$_0NS_9allocatorIS1_EEE6secondB8ne180100Ev', symObjAddr: 0x1764, symBinAddr: 0x1000031C8, symSize: 0x24 }
  - { offset: 0xD919, size: 0x8, addend: 0x0, symName: '__ZNKSt3__122__compressed_pair_elemINS_9allocatorIZ4mainE3$_0EELi1ELb1EE5__getB8ne180100Ev', symObjAddr: 0x1788, symBinAddr: 0x1000031EC, symSize: 0x14 }
  - { offset: 0xD94A, size: 0x8, addend: 0x0, symName: '__ZNSt3__116allocator_traitsINS_9allocatorINS_10__function6__funcIZ4mainE3$_0NS1_IS4_EEFvvEEEEEE8max_sizeB8ne180100IS8_vEEmRKS8_', symObjAddr: 0x179C, symBinAddr: 0x100003200, symSize: 0x24 }
  - { offset: 0xD978, size: 0x8, addend: 0x0, symName: '__ZNKSt3__19allocatorINS_10__function6__funcIZ4mainE3$_0NS0_IS3_EEFvvEEEE8max_sizeB8ne180100Ev', symObjAddr: 0x181C, symBinAddr: 0x100003280, symSize: 0x14 }
  - { offset: 0xD99E, size: 0x8, addend: 0x0, symName: '__ZNSt3__122__allocator_destructorINS_9allocatorINS_10__function6__funcIZ4mainE3$_0NS1_IS4_EEFvvEEEEEEC2B8ne180100ERS8_m', symObjAddr: 0x1854, symBinAddr: 0x1000032B8, symSize: 0x2C }
  - { offset: 0xD9E4, size: 0x8, addend: 0x0, symName: '__ZNSt3__110unique_ptrINS_10__function6__funcIZ4mainE3$_0NS_9allocatorIS3_EEFvvEEENS_22__allocator_destructorINS4_IS7_EEEEEC2B8ne180100ILb1EvEEPS7_NS_16__dependent_typeINS_27__unique_ptr_deleter_sfinaeISA_EEXT_EE20__good_rval_ref_typeE', symObjAddr: 0x1880, symBinAddr: 0x1000032E4, symSize: 0x48 }
  - { offset: 0xDA35, size: 0x8, addend: 0x0, symName: '__ZNSt3__117__compressed_pairIPNS_10__function6__funcIZ4mainE3$_0NS_9allocatorIS3_EEFvvEEENS_22__allocator_destructorINS4_IS7_EEEEEC1B8ne180100IRS8_SB_EEOT_OT0_', symObjAddr: 0x18C8, symBinAddr: 0x10000332C, symSize: 0x3C }
  - { offset: 0xDA8D, size: 0x8, addend: 0x0, symName: '__ZNSt3__117__compressed_pairIPNS_10__function6__funcIZ4mainE3$_0NS_9allocatorIS3_EEFvvEEENS_22__allocator_destructorINS4_IS7_EEEEEC2B8ne180100IRS8_SB_EEOT_OT0_', symObjAddr: 0x1914, symBinAddr: 0x100003378, symSize: 0x48 }
  - { offset: 0xDAE5, size: 0x8, addend: 0x0, symName: '__ZNSt3__122__compressed_pair_elemIPNS_10__function6__funcIZ4mainE3$_0NS_9allocatorIS3_EEFvvEEELi0ELb0EEC2B8ne180100IRS8_vEEOT_', symObjAddr: 0x195C, symBinAddr: 0x1000033C0, symSize: 0x24 }
  - { offset: 0xDB27, size: 0x8, addend: 0x0, symName: '__ZNSt3__122__compressed_pair_elemINS_22__allocator_destructorINS_9allocatorINS_10__function6__funcIZ4mainE3$_0NS2_IS5_EEFvvEEEEEEELi1ELb0EEC2B8ne180100ISA_vEEOT_', symObjAddr: 0x1980, symBinAddr: 0x1000033E4, symSize: 0x24 }
  - { offset: 0xDB69, size: 0x8, addend: 0x0, symName: '__ZNKSt3__117__compressed_pairIPNS_10__function6__funcIZ4mainE3$_0NS_9allocatorIS3_EEFvvEEENS_22__allocator_destructorINS4_IS7_EEEEE5firstB8ne180100Ev', symObjAddr: 0x19A4, symBinAddr: 0x100003408, symSize: 0x24 }
  - { offset: 0xDB8F, size: 0x8, addend: 0x0, symName: '__ZNKSt3__122__compressed_pair_elemIPNS_10__function6__funcIZ4mainE3$_0NS_9allocatorIS3_EEFvvEEELi0ELb0EE5__getB8ne180100Ev', symObjAddr: 0x19C8, symBinAddr: 0x10000342C, symSize: 0x14 }
  - { offset: 0xDBB5, size: 0x8, addend: 0x0, symName: '__ZNKSt3__117__compressed_pairIZ4mainE3$_0NS_9allocatorIS1_EEE5firstB8ne180100Ev', symObjAddr: 0x19DC, symBinAddr: 0x100003440, symSize: 0x24 }
  - { offset: 0xDBDB, size: 0x8, addend: 0x0, symName: '__ZNKSt3__122__compressed_pair_elemIZ4mainE3$_0Li0ELb0EE5__getB8ne180100Ev', symObjAddr: 0x1A00, symBinAddr: 0x100003464, symSize: 0x14 }
  - { offset: 0xDC01, size: 0x8, addend: 0x0, symName: '__ZNSt3__110__function6__funcIZ4mainE3$_0NS_9allocatorIS2_EEFvvEEC2B8ne180100ERKS2_OS4_', symObjAddr: 0x1A14, symBinAddr: 0x100003478, symSize: 0x80 }
  - { offset: 0xDC49, size: 0x8, addend: 0x0, symName: '__ZNSt3__110__function12__alloc_funcIZ4mainE3$_0NS_9allocatorIS2_EEFvvEEC1B8ne180100ERKS2_OS4_', symObjAddr: 0x1A94, symBinAddr: 0x1000034F8, symSize: 0x3C }
  - { offset: 0xDC8F, size: 0x8, addend: 0x0, symName: '__ZNSt3__110__function12__alloc_funcIZ4mainE3$_0NS_9allocatorIS2_EEFvvEEC2B8ne180100ERKS2_OS4_', symObjAddr: 0x1AD0, symBinAddr: 0x100003534, symSize: 0x5C }
  - { offset: 0xDCD5, size: 0x8, addend: 0x0, symName: '__ZNSt3__117__compressed_pairIZ4mainE3$_0NS_9allocatorIS1_EEEC1B8ne180100IJRKS1_EJOS3_EEENS_21piecewise_construct_tENS_5tupleIJDpT_EEENSA_IJDpT0_EEE', symObjAddr: 0x1B58, symBinAddr: 0x1000035BC, symSize: 0x3C }
  - { offset: 0xDD3F, size: 0x8, addend: 0x0, symName: '__ZNSt3__15tupleIJRKZ4mainE3$_0EEC1B8ne180100INS_4_AndELi0EEES3_', symObjAddr: 0x1B94, symBinAddr: 0x1000035F8, symSize: 0x34 }
  - { offset: 0xDD87, size: 0x8, addend: 0x0, symName: '__ZNSt3__15tupleIJRKZ4mainE3$_0EEC2B8ne180100INS_4_AndELi0EEES3_', symObjAddr: 0x1BC8, symBinAddr: 0x10000362C, symSize: 0x34 }
  - { offset: 0xDDCF, size: 0x8, addend: 0x0, symName: '__ZNSt3__112__tuple_implINS_15__tuple_indicesIJLm0EEEEJRKZ4mainE3$_0EEC1B8ne180100IJLm0EEJS5_EJEJEJS5_EEENS1_IJXspT_EEEENS_13__tuple_typesIJDpT0_EEENS1_IJXspT1_EEEENS9_IJDpT2_EEEDpOT3_', symObjAddr: 0x1BFC, symBinAddr: 0x100003660, symSize: 0x34 }
  - { offset: 0xDE64, size: 0x8, addend: 0x0, symName: '__ZNSt3__112__tuple_implINS_15__tuple_indicesIJLm0EEEEJRKZ4mainE3$_0EEC2B8ne180100IJLm0EEJS5_EJEJEJS5_EEENS1_IJXspT_EEEENS_13__tuple_typesIJDpT0_EEENS1_IJXspT1_EEEENS9_IJDpT2_EEEDpOT3_', symObjAddr: 0x1C30, symBinAddr: 0x100003694, symSize: 0x34 }
  - { offset: 0xDEF9, size: 0x8, addend: 0x0, symName: '__ZNSt3__112__tuple_leafILm0ERKZ4mainE3$_0Lb0EEC2B8ne180100IS3_vEEOT_', symObjAddr: 0x1C64, symBinAddr: 0x1000036C8, symSize: 0x20 }
  - { offset: 0xDF3C, size: 0x8, addend: 0x0, symName: '__ZNSt3__117__compressed_pairIZ4mainE3$_0NS_9allocatorIS1_EEEC2B8ne180100IJRKS1_EJOS3_EEENS_21piecewise_construct_tENS_5tupleIJDpT_EEENSA_IJDpT0_EEE', symObjAddr: 0x1C84, symBinAddr: 0x1000036E8, symSize: 0x54 }
  - { offset: 0xDFA6, size: 0x8, addend: 0x0, symName: '__ZNSt3__122__compressed_pair_elemIZ4mainE3$_0Li0ELb0EEC2B8ne180100IJRKS1_EJLm0EEEENS_21piecewise_construct_tENS_5tupleIJDpT_EEENS_15__tuple_indicesIJXspT0_EEEE', symObjAddr: 0x1CD8, symBinAddr: 0x10000373C, symSize: 0x44 }
  - { offset: 0xE009, size: 0x8, addend: 0x0, symName: '__ZNSt3__112__tuple_leafILm0ERKZ4mainE3$_0Lb0EE3getB8ne180100Ev', symObjAddr: 0x1D40, symBinAddr: 0x1000037A4, symSize: 0x18 }
  - { offset: 0xE02F, size: 0x8, addend: 0x0, symName: '__ZNSt3__117__compressed_pairIPNS_10__function6__funcIZ4mainE3$_0NS_9allocatorIS3_EEFvvEEENS_22__allocator_destructorINS4_IS7_EEEEE5firstB8ne180100Ev', symObjAddr: 0x1D58, symBinAddr: 0x1000037BC, symSize: 0x24 }
  - { offset: 0xE055, size: 0x8, addend: 0x0, symName: '__ZNSt3__122__compressed_pair_elemIPNS_10__function6__funcIZ4mainE3$_0NS_9allocatorIS3_EEFvvEEELi0ELb0EE5__getB8ne180100Ev', symObjAddr: 0x1D7C, symBinAddr: 0x1000037E0, symSize: 0x14 }
  - { offset: 0xE07B, size: 0x8, addend: 0x0, symName: '__ZNSt3__110unique_ptrINS_10__function6__funcIZ4mainE3$_0NS_9allocatorIS3_EEFvvEEENS_22__allocator_destructorINS4_IS7_EEEEED2B8ne180100Ev', symObjAddr: 0x1D90, symBinAddr: 0x1000037F4, symSize: 0x30 }
  - { offset: 0xE0A5, size: 0x8, addend: 0x0, symName: '__ZNSt3__110unique_ptrINS_10__function6__funcIZ4mainE3$_0NS_9allocatorIS3_EEFvvEEENS_22__allocator_destructorINS4_IS7_EEEEE5resetB8ne180100EPS7_', symObjAddr: 0x1DC0, symBinAddr: 0x100003824, symSize: 0x78 }
  - { offset: 0xE0E9, size: 0x8, addend: 0x0, symName: '__ZNSt3__117__compressed_pairIPNS_10__function6__funcIZ4mainE3$_0NS_9allocatorIS3_EEFvvEEENS_22__allocator_destructorINS4_IS7_EEEEE6secondB8ne180100Ev', symObjAddr: 0x1E38, symBinAddr: 0x10000389C, symSize: 0x28 }
  - { offset: 0xE10F, size: 0x8, addend: 0x0, symName: '__ZNSt3__122__allocator_destructorINS_9allocatorINS_10__function6__funcIZ4mainE3$_0NS1_IS4_EEFvvEEEEEEclB8ne180100EPS7_', symObjAddr: 0x1E60, symBinAddr: 0x1000038C4, symSize: 0x34 }
  - { offset: 0xE143, size: 0x8, addend: 0x0, symName: '__ZNSt3__122__compressed_pair_elemINS_22__allocator_destructorINS_9allocatorINS_10__function6__funcIZ4mainE3$_0NS2_IS5_EEFvvEEEEEEELi1ELb0EE5__getB8ne180100Ev', symObjAddr: 0x1E94, symBinAddr: 0x1000038F8, symSize: 0x14 }
  - { offset: 0xE169, size: 0x8, addend: 0x0, symName: '__ZNSt3__116allocator_traitsINS_9allocatorINS_10__function6__funcIZ4mainE3$_0NS1_IS4_EEFvvEEEEEE10deallocateB8ne180100ERS8_PS7_m', symObjAddr: 0x1EA8, symBinAddr: 0x10000390C, symSize: 0x34 }
  - { offset: 0xE1AB, size: 0x8, addend: 0x0, symName: '__ZNSt3__19allocatorINS_10__function6__funcIZ4mainE3$_0NS0_IS3_EEFvvEEEE10deallocateB8ne180100EPS6_m', symObjAddr: 0x1EDC, symBinAddr: 0x100003940, symSize: 0x40 }
  - { offset: 0xE1ED, size: 0x8, addend: 0x0, symName: '__ZNSt3__110__function6__funcIZ4mainE3$_0NS_9allocatorIS2_EEFvvEEC1B8ne180100ERKS2_RKS4_', symObjAddr: 0x1F98, symBinAddr: 0x1000039FC, symSize: 0x3C }
  - { offset: 0xE235, size: 0x8, addend: 0x0, symName: '__ZNSt3__110__function6__funcIZ4mainE3$_0NS_9allocatorIS2_EEFvvEEC2B8ne180100ERKS2_RKS4_', symObjAddr: 0x1FD4, symBinAddr: 0x100003A38, symSize: 0x80 }
  - { offset: 0xE27D, size: 0x8, addend: 0x0, symName: '__ZNSt3__110__function12__alloc_funcIZ4mainE3$_0NS_9allocatorIS2_EEFvvEEC1B8ne180100ERKS2_RKS4_', symObjAddr: 0x2054, symBinAddr: 0x100003AB8, symSize: 0x3C }
  - { offset: 0xE2C3, size: 0x8, addend: 0x0, symName: '__ZNSt3__110__function12__alloc_funcIZ4mainE3$_0NS_9allocatorIS2_EEFvvEEC2B8ne180100ERKS2_RKS4_', symObjAddr: 0x2090, symBinAddr: 0x100003AF4, symSize: 0x5C }
  - { offset: 0xE309, size: 0x8, addend: 0x0, symName: '__ZNSt3__117__compressed_pairIZ4mainE3$_0NS_9allocatorIS1_EEEC1B8ne180100IJRKS1_EJRKS3_EEENS_21piecewise_construct_tENS_5tupleIJDpT_EEENSB_IJDpT0_EEE', symObjAddr: 0x2118, symBinAddr: 0x100003B7C, symSize: 0x3C }
  - { offset: 0xE373, size: 0x8, addend: 0x0, symName: '__ZNSt3__15tupleIJRKNS_9allocatorIZ4mainE3$_0EEEEC1B8ne180100INS_4_AndELi0EEES5_', symObjAddr: 0x2154, symBinAddr: 0x100003BB8, symSize: 0x34 }
  - { offset: 0xE3BB, size: 0x8, addend: 0x0, symName: '__ZNSt3__15tupleIJRKNS_9allocatorIZ4mainE3$_0EEEEC2B8ne180100INS_4_AndELi0EEES5_', symObjAddr: 0x2188, symBinAddr: 0x100003BEC, symSize: 0x34 }
  - { offset: 0xE403, size: 0x8, addend: 0x0, symName: '__ZNSt3__112__tuple_implINS_15__tuple_indicesIJLm0EEEEJRKNS_9allocatorIZ4mainE3$_0EEEEC1B8ne180100IJLm0EEJS7_EJEJEJS7_EEENS1_IJXspT_EEEENS_13__tuple_typesIJDpT0_EEENS1_IJXspT1_EEEENSB_IJDpT2_EEEDpOT3_', symObjAddr: 0x21BC, symBinAddr: 0x100003C20, symSize: 0x34 }
  - { offset: 0xE498, size: 0x8, addend: 0x0, symName: '__ZNSt3__112__tuple_implINS_15__tuple_indicesIJLm0EEEEJRKNS_9allocatorIZ4mainE3$_0EEEEC2B8ne180100IJLm0EEJS7_EJEJEJS7_EEENS1_IJXspT_EEEENS_13__tuple_typesIJDpT0_EEENS1_IJXspT1_EEEENSB_IJDpT2_EEEDpOT3_', symObjAddr: 0x21F0, symBinAddr: 0x100003C54, symSize: 0x34 }
  - { offset: 0xE52D, size: 0x8, addend: 0x0, symName: '__ZNSt3__112__tuple_leafILm0ERKNS_9allocatorIZ4mainE3$_0EELb0EEC2B8ne180100IS5_vEEOT_', symObjAddr: 0x2224, symBinAddr: 0x100003C88, symSize: 0x20 }
  - { offset: 0xE570, size: 0x8, addend: 0x0, symName: '__ZNSt3__117__compressed_pairIZ4mainE3$_0NS_9allocatorIS1_EEEC2B8ne180100IJRKS1_EJRKS3_EEENS_21piecewise_construct_tENS_5tupleIJDpT_EEENSB_IJDpT0_EEE', symObjAddr: 0x2244, symBinAddr: 0x100003CA8, symSize: 0x54 }
  - { offset: 0xE5DA, size: 0x8, addend: 0x0, symName: '__ZNSt3__122__compressed_pair_elemINS_9allocatorIZ4mainE3$_0EELi1ELb1EEC2B8ne180100IJRKS3_EJLm0EEEENS_21piecewise_construct_tENS_5tupleIJDpT_EEENS_15__tuple_indicesIJXspT0_EEEE', symObjAddr: 0x2298, symBinAddr: 0x100003CFC, symSize: 0x38 }
  - { offset: 0xE63D, size: 0x8, addend: 0x0, symName: '__ZNSt3__112__tuple_leafILm0ERKNS_9allocatorIZ4mainE3$_0EELb0EE3getB8ne180100Ev', symObjAddr: 0x22F4, symBinAddr: 0x100003D58, symSize: 0x18 }
  - { offset: 0xE663, size: 0x8, addend: 0x0, symName: '__ZNSt3__110__function12__alloc_funcIZ4mainE3$_0NS_9allocatorIS2_EEFvvEE7destroyB8ne180100Ev', symObjAddr: 0x230C, symBinAddr: 0x100003D70, symSize: 0x10 }
  - { offset: 0xE689, size: 0x8, addend: 0x0, symName: '__ZNSt3__110__function12__alloc_funcIZ4mainE3$_0NS_9allocatorIS2_EEFvvEEclB8ne180100Ev', symObjAddr: 0x231C, symBinAddr: 0x100003D80, symSize: 0x28 }
  - { offset: 0xE6AF, size: 0x8, addend: 0x0, symName: '__ZNSt3__128__invoke_void_return_wrapperIvLb1EE6__callB8ne180100IJRZ4mainE3$_0EEEvDpOT_', symObjAddr: 0x2344, symBinAddr: 0x100003DA8, symSize: 0x24 }
  - { offset: 0xE6DE, size: 0x8, addend: 0x0, symName: '__ZNSt3__117__compressed_pairIZ4mainE3$_0NS_9allocatorIS1_EEE5firstB8ne180100Ev', symObjAddr: 0x2368, symBinAddr: 0x100003DCC, symSize: 0x24 }
  - { offset: 0xE704, size: 0x8, addend: 0x0, symName: '__ZZ4mainENK3$_0clEv', symObjAddr: 0x23B0, symBinAddr: 0x100003E14, symSize: 0x28 }
  - { offset: 0xE72E, size: 0x8, addend: 0x0, symName: __ZN6FooBar8printFooEv, symObjAddr: 0x23D8, symBinAddr: 0x100003E3C, symSize: 0x30 }
  - { offset: 0xE754, size: 0x8, addend: 0x0, symName: __ZNSt3__111char_traitsIcE6lengthB8ne180100EPKc, symObjAddr: 0x263C, symBinAddr: 0x1000040A0, symSize: 0x34 }
  - { offset: 0xE79A, size: 0x8, addend: 0x0, symName: __ZNKSt3__113basic_ostreamIcNS_11char_traitsIcEEE6sentrycvbB8ne180100Ev, symObjAddr: 0x2670, symBinAddr: 0x1000040D4, symSize: 0x1C }
  - { offset: 0xE7C0, size: 0x8, addend: 0x0, symName: __ZNSt3__119ostreambuf_iteratorIcNS_11char_traitsIcEEEC1B8ne180100ERNS_13basic_ostreamIcS2_EE, symObjAddr: 0x28CC, symBinAddr: 0x100004330, symSize: 0x34 }
  - { offset: 0xE7F8, size: 0x8, addend: 0x0, symName: __ZNKSt3__18ios_base5flagsB8ne180100Ev, symObjAddr: 0x2900, symBinAddr: 0x100004364, symSize: 0x18 }
  - { offset: 0xE820, size: 0x8, addend: 0x0, symName: __ZNKSt3__19basic_iosIcNS_11char_traitsIcEEE4fillB8ne180100Ev, symObjAddr: 0x2918, symBinAddr: 0x10000437C, symSize: 0x64 }
  - { offset: 0xE848, size: 0x8, addend: 0x0, symName: __ZNKSt3__119ostreambuf_iteratorIcNS_11char_traitsIcEEE6failedB8ne180100Ev, symObjAddr: 0x297C, symBinAddr: 0x1000043E0, symSize: 0x24 }
  - { offset: 0xE86E, size: 0x8, addend: 0x0, symName: __ZNSt3__19basic_iosIcNS_11char_traitsIcEEE8setstateB8ne180100Ej, symObjAddr: 0x29A0, symBinAddr: 0x100004404, symSize: 0x2C }
  - { offset: 0xE8A3, size: 0x8, addend: 0x0, symName: __ZNKSt3__18ios_base5widthB8ne180100Ev, symObjAddr: 0x29CC, symBinAddr: 0x100004430, symSize: 0x18 }
  - { offset: 0xE8CB, size: 0x8, addend: 0x0, symName: __ZNSt3__115basic_streambufIcNS_11char_traitsIcEEE5sputnB8ne180100EPKcl, symObjAddr: 0x29E4, symBinAddr: 0x100004448, symSize: 0x3C }
  - { offset: 0xE90D, size: 0x8, addend: 0x0, symName: __ZNSt3__112basic_stringIcNS_11char_traitsIcEENS_9allocatorIcEEEC1B8ne180100Emc, symObjAddr: 0x2A20, symBinAddr: 0x100004484, symSize: 0x3C }
  - { offset: 0xE955, size: 0x8, addend: 0x0, symName: __ZNKSt3__112basic_stringIcNS_11char_traitsIcEENS_9allocatorIcEEE4dataB8ne180100Ev, symObjAddr: 0x2A5C, symBinAddr: 0x1000044C0, symSize: 0x28 }
  - { offset: 0xE97B, size: 0x8, addend: 0x0, symName: __ZNSt3__18ios_base5widthB8ne180100El, symObjAddr: 0x2A84, symBinAddr: 0x1000044E8, symSize: 0x2C }
  - { offset: 0xE9C1, size: 0x8, addend: 0x0, symName: __ZNSt3__112basic_stringIcNS_11char_traitsIcEENS_9allocatorIcEEEC2B8ne180100Emc, symObjAddr: 0x2AB0, symBinAddr: 0x100004514, symSize: 0x4C }
  - { offset: 0xEA0F, size: 0x8, addend: 0x0, symName: __ZNSt3__117__compressed_pairINS_12basic_stringIcNS_11char_traitsIcEENS_9allocatorIcEEE5__repES5_EC1B8ne180100INS_18__default_init_tagESA_EEOT_OT0_, symObjAddr: 0x2AFC, symBinAddr: 0x100004560, symSize: 0x3C }
  - { offset: 0xEA67, size: 0x8, addend: 0x0, symName: __ZNSt3__117__compressed_pairINS_12basic_stringIcNS_11char_traitsIcEENS_9allocatorIcEEE5__repES5_EC2B8ne180100INS_18__default_init_tagESA_EEOT_OT0_, symObjAddr: 0x2B38, symBinAddr: 0x10000459C, symSize: 0x3C }
  - { offset: 0xEABF, size: 0x8, addend: 0x0, symName: __ZNSt3__122__compressed_pair_elemINS_12basic_stringIcNS_11char_traitsIcEENS_9allocatorIcEEE5__repELi0ELb0EEC2B8ne180100ENS_18__default_init_tagE, symObjAddr: 0x2B74, symBinAddr: 0x1000045D8, symSize: 0x14 }
  - { offset: 0xEAF3, size: 0x8, addend: 0x0, symName: __ZNSt3__122__compressed_pair_elemINS_9allocatorIcEELi1ELb1EEC2B8ne180100ENS_18__default_init_tagE, symObjAddr: 0x2B88, symBinAddr: 0x1000045EC, symSize: 0x2C }
  - { offset: 0xEB27, size: 0x8, addend: 0x0, symName: __ZNSt3__19allocatorIcEC2B8ne180100Ev, symObjAddr: 0x2BB4, symBinAddr: 0x100004618, symSize: 0x2C }
  - { offset: 0xEB51, size: 0x8, addend: 0x0, symName: __ZNSt3__116__non_trivial_ifILb1ENS_9allocatorIcEEEC2B8ne180100Ev, symObjAddr: 0x2BE0, symBinAddr: 0x100004644, symSize: 0x14 }
  - { offset: 0xEB7B, size: 0x8, addend: 0x0, symName: __ZNKSt3__112basic_stringIcNS_11char_traitsIcEENS_9allocatorIcEEE13__get_pointerB8ne180100Ev, symObjAddr: 0x2C08, symBinAddr: 0x10000466C, symSize: 0x54 }
  - { offset: 0xEBA1, size: 0x8, addend: 0x0, symName: __ZNKSt3__112basic_stringIcNS_11char_traitsIcEENS_9allocatorIcEEE9__is_longB8ne180100Ev, symObjAddr: 0x2C5C, symBinAddr: 0x1000046C0, symSize: 0x38 }
  - { offset: 0xEBC7, size: 0x8, addend: 0x0, symName: __ZNKSt3__112basic_stringIcNS_11char_traitsIcEENS_9allocatorIcEEE18__get_long_pointerB8ne180100Ev, symObjAddr: 0x2C94, symBinAddr: 0x1000046F8, symSize: 0x28 }
  - { offset: 0xEBED, size: 0x8, addend: 0x0, symName: __ZNKSt3__112basic_stringIcNS_11char_traitsIcEENS_9allocatorIcEEE19__get_short_pointerB8ne180100Ev, symObjAddr: 0x2CBC, symBinAddr: 0x100004720, symSize: 0x28 }
  - { offset: 0xEC13, size: 0x8, addend: 0x0, symName: __ZNKSt3__117__compressed_pairINS_12basic_stringIcNS_11char_traitsIcEENS_9allocatorIcEEE5__repES5_E5firstB8ne180100Ev, symObjAddr: 0x2CE4, symBinAddr: 0x100004748, symSize: 0x24 }
  - { offset: 0xEC39, size: 0x8, addend: 0x0, symName: __ZNKSt3__122__compressed_pair_elemINS_12basic_stringIcNS_11char_traitsIcEENS_9allocatorIcEEE5__repELi0ELb0EE5__getB8ne180100Ev, symObjAddr: 0x2D08, symBinAddr: 0x10000476C, symSize: 0x14 }
  - { offset: 0xEC5F, size: 0x8, addend: 0x0, symName: __ZNSt3__114pointer_traitsIPKcE10pointer_toB8ne180100ERS1_, symObjAddr: 0x2D1C, symBinAddr: 0x100004780, symSize: 0x14 }
  - { offset: 0xEC82, size: 0x8, addend: 0x0, symName: __ZNSt3__119ostreambuf_iteratorIcNS_11char_traitsIcEEEC2B8ne180100ERNS_13basic_ostreamIcS2_EE, symObjAddr: 0x2D30, symBinAddr: 0x100004794, symSize: 0x54 }
  - { offset: 0xECBA, size: 0x8, addend: 0x0, symName: __ZNKSt3__19basic_iosIcNS_11char_traitsIcEEE5rdbufB8ne180100Ev, symObjAddr: 0x2D84, symBinAddr: 0x1000047E8, symSize: 0x24 }
  - { offset: 0xECE2, size: 0x8, addend: 0x0, symName: __ZNKSt3__18ios_base5rdbufB8ne180100Ev, symObjAddr: 0x2DA8, symBinAddr: 0x10000480C, symSize: 0x18 }
  - { offset: 0xED08, size: 0x8, addend: 0x0, symName: __ZNSt3__111char_traitsIcE11eq_int_typeB8ne180100Eii, symObjAddr: 0x2DC0, symBinAddr: 0x100004824, symSize: 0x28 }
  - { offset: 0xED3B, size: 0x8, addend: 0x0, symName: __ZNSt3__111char_traitsIcE3eofB8ne180100Ev, symObjAddr: 0x2DE8, symBinAddr: 0x10000484C, symSize: 0x8 }
  - { offset: 0xED4F, size: 0x8, addend: 0x0, symName: __ZNKSt3__19basic_iosIcNS_11char_traitsIcEEE5widenB8ne180100Ec, symObjAddr: 0x2DF0, symBinAddr: 0x100004854, symSize: 0x84 }
  - { offset: 0xEDCF, size: 0x8, addend: 0x0, symName: __ZNKSt3__15ctypeIcE5widenB8ne180100Ec, symObjAddr: 0x2EA0, symBinAddr: 0x100004904, symSize: 0x38 }
  - { offset: 0xEE04, size: 0x8, addend: 0x0, symName: __ZNSt3__18ios_base8setstateB8ne180100Ej, symObjAddr: 0x2ED8, symBinAddr: 0x10000493C, symSize: 0x34 }
  - { offset: 0xEE3B, size: 0x8, addend: 0x0, symName: '__ZNSt3__122__compressed_pair_elemIZ4mainE3$_0Li0ELb0EE5__getB8ne180100Ev', symObjAddr: 0x2F30, symBinAddr: 0x100004994, symSize: 0x14 }
  - { offset: 0xEE95, size: 0x8, addend: 0x0, symName: __ZNKSt9type_infoeqB8ne180100ERKS_, symObjAddr: 0x2F44, symBinAddr: 0x1000049A8, symSize: 0xDC }
  - { offset: 0xEF31, size: 0x8, addend: 0x0, symName: __ZNSt27__type_info_implementations30__non_unique_arm_rtti_bit_impl21__is_type_name_uniqueB8ne180100Em, symObjAddr: 0x3020, symBinAddr: 0x100004A84, symSize: 0x20 }
  - { offset: 0xEF55, size: 0x8, addend: 0x0, symName: __ZNSt3__18functionIFvvEED2Ev, symObjAddr: 0x3040, symBinAddr: 0x100004AA4, symSize: 0x2C }
  - { offset: 0xEF81, size: 0x8, addend: 0x0, symName: __ZNSt3__110__function12__value_funcIFvvEED1B8ne180100Ev, symObjAddr: 0x306C, symBinAddr: 0x100004AD0, symSize: 0x2C }
  - { offset: 0xEFAB, size: 0x8, addend: 0x0, symName: __ZNSt3__110__function12__value_funcIFvvEED2B8ne180100Ev, symObjAddr: 0x3098, symBinAddr: 0x100004AFC, symSize: 0x90 }
  - { offset: 0xEFD5, size: 0x8, addend: 0x0, symName: '__ZNSt3__18functionIFvvEEC2IZ4mainE3$_1vEET_', symObjAddr: 0x3128, symBinAddr: 0x100004B8C, symSize: 0x38 }
  - { offset: 0xF01A, size: 0x8, addend: 0x0, symName: '__ZNSt3__110__function12__value_funcIFvvEEC1B8ne180100IZ4mainE3$_1Li0EEEOT_', symObjAddr: 0x3160, symBinAddr: 0x100004BC4, symSize: 0x50 }
  - { offset: 0xF062, size: 0x8, addend: 0x0, symName: '__ZNSt3__19allocatorIZ4mainE3$_1EC1B8ne180100Ev', symObjAddr: 0x31B0, symBinAddr: 0x100004C14, symSize: 0x2C }
  - { offset: 0xF08C, size: 0x8, addend: 0x0, symName: '__ZNSt3__110__function12__value_funcIFvvEEC1B8ne180100IZ4mainE3$_1NS_9allocatorIS5_EEEEOT_RKT0_', symObjAddr: 0x31DC, symBinAddr: 0x100004C40, symSize: 0x3C }
  - { offset: 0xF0E6, size: 0x8, addend: 0x0, symName: '__ZNSt3__19allocatorIZ4mainE3$_1EC2B8ne180100Ev', symObjAddr: 0x3218, symBinAddr: 0x100004C7C, symSize: 0x2C }
  - { offset: 0xF110, size: 0x8, addend: 0x0, symName: '__ZNSt3__116__non_trivial_ifILb1ENS_9allocatorIZ4mainE3$_1EEEC2B8ne180100Ev', symObjAddr: 0x3244, symBinAddr: 0x100004CA8, symSize: 0x14 }
  - { offset: 0xF13A, size: 0x8, addend: 0x0, symName: '__ZNSt3__110__function12__value_funcIFvvEEC2B8ne180100IZ4mainE3$_1NS_9allocatorIS5_EEEEOT_RKT0_', symObjAddr: 0x3258, symBinAddr: 0x100004CBC, symSize: 0x94 }
  - { offset: 0xF1E7, size: 0x8, addend: 0x0, symName: '__ZNSt3__19allocatorINS_10__function6__funcIZ4mainE3$_1NS0_IS3_EEFvvEEEEC1B8ne180100IS3_EERKNS0_IT_EE', symObjAddr: 0x3304, symBinAddr: 0x100004D68, symSize: 0x34 }
  - { offset: 0xF22A, size: 0x8, addend: 0x0, symName: '__ZNSt3__19allocatorIZ4mainE3$_1EC1B8ne180100INS_10__function6__funcIS1_S2_FvvEEEEERKNS0_IT_EE', symObjAddr: 0x3338, symBinAddr: 0x100004D9C, symSize: 0x34 }
  - { offset: 0xF267, size: 0x8, addend: 0x0, symName: '__ZNSt3__110__function6__funcIZ4mainE3$_1NS_9allocatorIS2_EEFvvEEC1B8ne180100EOS2_OS4_', symObjAddr: 0x336C, symBinAddr: 0x100004DD0, symSize: 0x3C }
  - { offset: 0xF2AF, size: 0x8, addend: 0x0, symName: '__ZNSt3__19allocatorINS_10__function6__funcIZ4mainE3$_1NS0_IS3_EEFvvEEEEC2B8ne180100IS3_EERKNS0_IT_EE', symObjAddr: 0x33A8, symBinAddr: 0x100004E0C, symSize: 0x30 }
  - { offset: 0xF2EC, size: 0x8, addend: 0x0, symName: '__ZNSt3__116__non_trivial_ifILb1ENS_9allocatorINS_10__function6__funcIZ4mainE3$_1NS1_IS4_EEFvvEEEEEEC2B8ne180100Ev', symObjAddr: 0x33D8, symBinAddr: 0x100004E3C, symSize: 0x14 }
  - { offset: 0xF316, size: 0x8, addend: 0x0, symName: '__ZNSt3__19allocatorIZ4mainE3$_1EC2B8ne180100INS_10__function6__funcIS1_S2_FvvEEEEERKNS0_IT_EE', symObjAddr: 0x33EC, symBinAddr: 0x100004E50, symSize: 0x30 }
  - { offset: 0xF353, size: 0x8, addend: 0x0, symName: '__ZNSt3__110__function6__funcIZ4mainE3$_1NS_9allocatorIS2_EEFvvEEC2B8ne180100EOS2_OS4_', symObjAddr: 0x341C, symBinAddr: 0x100004E80, symSize: 0x80 }
  - { offset: 0xF39B, size: 0x8, addend: 0x0, symName: '__ZNSt3__110__function12__alloc_funcIZ4mainE3$_1NS_9allocatorIS2_EEFvvEEC1B8ne180100EOS2_OS4_', symObjAddr: 0x349C, symBinAddr: 0x100004F00, symSize: 0x3C }
  - { offset: 0xF3E1, size: 0x8, addend: 0x0, symName: '__ZNSt3__110__function6__funcIZ4mainE3$_1NS_9allocatorIS2_EEFvvEED1Ev', symObjAddr: 0x34D8, symBinAddr: 0x100004F3C, symSize: 0x2C }
  - { offset: 0xF40D, size: 0x8, addend: 0x0, symName: '__ZNSt3__110__function6__funcIZ4mainE3$_1NS_9allocatorIS2_EEFvvEED0Ev', symObjAddr: 0x3504, symBinAddr: 0x100004F68, symSize: 0x30 }
  - { offset: 0xF439, size: 0x8, addend: 0x0, symName: '__ZNKSt3__110__function6__funcIZ4mainE3$_1NS_9allocatorIS2_EEFvvEE7__cloneEv', symObjAddr: 0x3534, symBinAddr: 0x100004F98, symSize: 0xFC }
  - { offset: 0xF48B, size: 0x8, addend: 0x0, symName: '__ZNKSt3__110__function6__funcIZ4mainE3$_1NS_9allocatorIS2_EEFvvEE7__cloneEPNS0_6__baseIS5_EE', symObjAddr: 0x3630, symBinAddr: 0x100005094, symSize: 0x58 }
  - { offset: 0xF4C2, size: 0x8, addend: 0x0, symName: '__ZNSt3__110__function6__funcIZ4mainE3$_1NS_9allocatorIS2_EEFvvEE7destroyEv', symObjAddr: 0x3688, symBinAddr: 0x1000050EC, symSize: 0x28 }
  - { offset: 0xF4EA, size: 0x8, addend: 0x0, symName: '__ZNSt3__110__function6__funcIZ4mainE3$_1NS_9allocatorIS2_EEFvvEE18destroy_deallocateEv', symObjAddr: 0x36B0, symBinAddr: 0x100005114, symSize: 0x58 }
  - { offset: 0xF52D, size: 0x8, addend: 0x0, symName: '__ZNSt3__110__function6__funcIZ4mainE3$_1NS_9allocatorIS2_EEFvvEEclEv', symObjAddr: 0x3708, symBinAddr: 0x10000516C, symSize: 0x28 }
  - { offset: 0xF555, size: 0x8, addend: 0x0, symName: '__ZNKSt3__110__function6__funcIZ4mainE3$_1NS_9allocatorIS2_EEFvvEE6targetERKSt9type_info', symObjAddr: 0x3730, symBinAddr: 0x100005194, symSize: 0x60 }
  - { offset: 0xF58C, size: 0x8, addend: 0x0, symName: '__ZNKSt3__110__function6__funcIZ4mainE3$_1NS_9allocatorIS2_EEFvvEE11target_typeEv', symObjAddr: 0x3790, symBinAddr: 0x1000051F4, symSize: 0x18 }
  - { offset: 0xF5B4, size: 0x8, addend: 0x0, symName: '__ZNSt3__110__function12__alloc_funcIZ4mainE3$_1NS_9allocatorIS2_EEFvvEEC2B8ne180100EOS2_OS4_', symObjAddr: 0x37A8, symBinAddr: 0x10000520C, symSize: 0x5C }
  - { offset: 0xF5FA, size: 0x8, addend: 0x0, symName: '__ZNSt3__117__compressed_pairIZ4mainE3$_1NS_9allocatorIS1_EEEC1B8ne180100IJOS1_EJOS3_EEENS_21piecewise_construct_tENS_5tupleIJDpT_EEENS9_IJDpT0_EEE', symObjAddr: 0x385C, symBinAddr: 0x1000052C0, symSize: 0x3C }
  - { offset: 0xF664, size: 0x8, addend: 0x0, symName: '__ZNSt3__15tupleIJOZ4mainE3$_1EEC1B8ne180100IJS1_ELi0EEEDpOT_', symObjAddr: 0x3898, symBinAddr: 0x1000052FC, symSize: 0x34 }
  - { offset: 0xF6AE, size: 0x8, addend: 0x0, symName: '__ZNSt3__15tupleIJOZ4mainE3$_1EEC2B8ne180100IJS1_ELi0EEEDpOT_', symObjAddr: 0x38CC, symBinAddr: 0x100005330, symSize: 0x34 }
  - { offset: 0xF6F8, size: 0x8, addend: 0x0, symName: '__ZNSt3__112__tuple_implINS_15__tuple_indicesIJLm0EEEEJOZ4mainE3$_1EEC1B8ne180100IJLm0EEJS4_EJEJEJS3_EEENS1_IJXspT_EEEENS_13__tuple_typesIJDpT0_EEENS1_IJXspT1_EEEENS8_IJDpT2_EEEDpOT3_', symObjAddr: 0x3900, symBinAddr: 0x100005364, symSize: 0x34 }
  - { offset: 0xF78D, size: 0x8, addend: 0x0, symName: '__ZNSt3__112__tuple_implINS_15__tuple_indicesIJLm0EEEEJOZ4mainE3$_1EEC2B8ne180100IJLm0EEJS4_EJEJEJS3_EEENS1_IJXspT_EEEENS_13__tuple_typesIJDpT0_EEENS1_IJXspT1_EEEENS8_IJDpT2_EEEDpOT3_', symObjAddr: 0x3934, symBinAddr: 0x100005398, symSize: 0x34 }
  - { offset: 0xF822, size: 0x8, addend: 0x0, symName: '__ZNSt3__112__tuple_leafILm0EOZ4mainE3$_1Lb0EEC2B8ne180100IS1_vEEOT_', symObjAddr: 0x3968, symBinAddr: 0x1000053CC, symSize: 0x20 }
  - { offset: 0xF865, size: 0x8, addend: 0x0, symName: '__ZNSt3__15tupleIJONS_9allocatorIZ4mainE3$_1EEEEC1B8ne180100IJS3_ELi0EEEDpOT_', symObjAddr: 0x3988, symBinAddr: 0x1000053EC, symSize: 0x34 }
  - { offset: 0xF8AF, size: 0x8, addend: 0x0, symName: '__ZNSt3__15tupleIJONS_9allocatorIZ4mainE3$_1EEEEC2B8ne180100IJS3_ELi0EEEDpOT_', symObjAddr: 0x39BC, symBinAddr: 0x100005420, symSize: 0x34 }
  - { offset: 0xF8F9, size: 0x8, addend: 0x0, symName: '__ZNSt3__112__tuple_implINS_15__tuple_indicesIJLm0EEEEJONS_9allocatorIZ4mainE3$_1EEEEC1B8ne180100IJLm0EEJS6_EJEJEJS5_EEENS1_IJXspT_EEEENS_13__tuple_typesIJDpT0_EEENS1_IJXspT1_EEEENSA_IJDpT2_EEEDpOT3_', symObjAddr: 0x39F0, symBinAddr: 0x100005454, symSize: 0x34 }
  - { offset: 0xF98E, size: 0x8, addend: 0x0, symName: '__ZNSt3__112__tuple_implINS_15__tuple_indicesIJLm0EEEEJONS_9allocatorIZ4mainE3$_1EEEEC2B8ne180100IJLm0EEJS6_EJEJEJS5_EEENS1_IJXspT_EEEENS_13__tuple_typesIJDpT0_EEENS1_IJXspT1_EEEENSA_IJDpT2_EEEDpOT3_', symObjAddr: 0x3A24, symBinAddr: 0x100005488, symSize: 0x34 }
  - { offset: 0xFA23, size: 0x8, addend: 0x0, symName: '__ZNSt3__112__tuple_leafILm0EONS_9allocatorIZ4mainE3$_1EELb0EEC2B8ne180100IS3_vEEOT_', symObjAddr: 0x3A58, symBinAddr: 0x1000054BC, symSize: 0x20 }
  - { offset: 0xFA66, size: 0x8, addend: 0x0, symName: '__ZNSt3__117__compressed_pairIZ4mainE3$_1NS_9allocatorIS1_EEEC2B8ne180100IJOS1_EJOS3_EEENS_21piecewise_construct_tENS_5tupleIJDpT_EEENS9_IJDpT0_EEE', symObjAddr: 0x3A78, symBinAddr: 0x1000054DC, symSize: 0x54 }
  - { offset: 0xFAD0, size: 0x8, addend: 0x0, symName: '__ZNSt3__122__compressed_pair_elemIZ4mainE3$_1Li0ELb0EEC2B8ne180100IJOS1_EJLm0EEEENS_21piecewise_construct_tENS_5tupleIJDpT_EEENS_15__tuple_indicesIJXspT0_EEEE', symObjAddr: 0x3ACC, symBinAddr: 0x100005530, symSize: 0x44 }
  - { offset: 0xFB33, size: 0x8, addend: 0x0, symName: '__ZNSt3__122__compressed_pair_elemINS_9allocatorIZ4mainE3$_1EELi1ELb1EEC2B8ne180100IJOS3_EJLm0EEEENS_21piecewise_construct_tENS_5tupleIJDpT_EEENS_15__tuple_indicesIJXspT0_EEEE', symObjAddr: 0x3B10, symBinAddr: 0x100005574, symSize: 0x38 }
  - { offset: 0xFB96, size: 0x8, addend: 0x0, symName: '__ZNSt3__112__tuple_leafILm0EOZ4mainE3$_1Lb0EE3getB8ne180100Ev', symObjAddr: 0x3B6C, symBinAddr: 0x1000055D0, symSize: 0x18 }
  - { offset: 0xFBBC, size: 0x8, addend: 0x0, symName: '__ZNSt3__112__tuple_leafILm0EONS_9allocatorIZ4mainE3$_1EELb0EE3getB8ne180100Ev', symObjAddr: 0x3BA8, symBinAddr: 0x10000560C, symSize: 0x18 }
  - { offset: 0xFBE2, size: 0x8, addend: 0x0, symName: '__ZNSt3__110__function6__funcIZ4mainE3$_1NS_9allocatorIS2_EEFvvEED2Ev', symObjAddr: 0x3BC0, symBinAddr: 0x100005624, symSize: 0x2C }
  - { offset: 0xFC0E, size: 0x8, addend: 0x0, symName: '__ZNKSt3__110__function12__alloc_funcIZ4mainE3$_1NS_9allocatorIS2_EEFvvEE15__get_allocatorB8ne180100Ev', symObjAddr: 0x3BEC, symBinAddr: 0x100005650, symSize: 0x24 }
  - { offset: 0xFC34, size: 0x8, addend: 0x0, symName: '__ZNSt3__19allocatorINS_10__function6__funcIZ4mainE3$_1NS0_IS3_EEFvvEEEE8allocateB8ne180100Em', symObjAddr: 0x3C10, symBinAddr: 0x100005674, symSize: 0x58 }
  - { offset: 0xFC7A, size: 0x8, addend: 0x0, symName: '__ZNSt3__122__allocator_destructorINS_9allocatorINS_10__function6__funcIZ4mainE3$_1NS1_IS4_EEFvvEEEEEEC1B8ne180100ERS8_m', symObjAddr: 0x3C68, symBinAddr: 0x1000056CC, symSize: 0x3C }
  - { offset: 0xFD61, size: 0x8, addend: 0x0, symName: '__ZNSt3__110unique_ptrINS_10__function6__funcIZ4mainE3$_1NS_9allocatorIS3_EEFvvEEENS_22__allocator_destructorINS4_IS7_EEEEEC1B8ne180100ILb1EvEEPS7_NS_16__dependent_typeINS_27__unique_ptr_deleter_sfinaeISA_EEXT_EE20__good_rval_ref_typeE', symObjAddr: 0x3CA4, symBinAddr: 0x100005708, symSize: 0x3C }
  - { offset: 0xFDB2, size: 0x8, addend: 0x0, symName: '__ZNKSt3__110unique_ptrINS_10__function6__funcIZ4mainE3$_1NS_9allocatorIS3_EEFvvEEENS_22__allocator_destructorINS4_IS7_EEEEE3getB8ne180100Ev', symObjAddr: 0x3CE0, symBinAddr: 0x100005744, symSize: 0x28 }
  - { offset: 0xFDD8, size: 0x8, addend: 0x0, symName: '__ZNKSt3__110__function12__alloc_funcIZ4mainE3$_1NS_9allocatorIS2_EEFvvEE8__targetB8ne180100Ev', symObjAddr: 0x3D08, symBinAddr: 0x10000576C, symSize: 0x24 }
  - { offset: 0xFDFE, size: 0x8, addend: 0x0, symName: '__ZNSt3__110__function6__funcIZ4mainE3$_1NS_9allocatorIS2_EEFvvEEC1B8ne180100ERKS2_OS4_', symObjAddr: 0x3D2C, symBinAddr: 0x100005790, symSize: 0x3C }
  - { offset: 0xFE46, size: 0x8, addend: 0x0, symName: '__ZNSt3__110unique_ptrINS_10__function6__funcIZ4mainE3$_1NS_9allocatorIS3_EEFvvEEENS_22__allocator_destructorINS4_IS7_EEEEE7releaseB8ne180100Ev', symObjAddr: 0x3D68, symBinAddr: 0x1000057CC, symSize: 0x44 }
  - { offset: 0xFE7B, size: 0x8, addend: 0x0, symName: '__ZNSt3__110unique_ptrINS_10__function6__funcIZ4mainE3$_1NS_9allocatorIS3_EEFvvEEENS_22__allocator_destructorINS4_IS7_EEEEED1B8ne180100Ev', symObjAddr: 0x3DAC, symBinAddr: 0x100005810, symSize: 0x2C }
  - { offset: 0xFEA5, size: 0x8, addend: 0x0, symName: '__ZNKSt3__117__compressed_pairIZ4mainE3$_1NS_9allocatorIS1_EEE6secondB8ne180100Ev', symObjAddr: 0x3DD8, symBinAddr: 0x10000583C, symSize: 0x24 }
  - { offset: 0xFECB, size: 0x8, addend: 0x0, symName: '__ZNKSt3__122__compressed_pair_elemINS_9allocatorIZ4mainE3$_1EELi1ELb1EE5__getB8ne180100Ev', symObjAddr: 0x3DFC, symBinAddr: 0x100005860, symSize: 0x14 }
  - { offset: 0xFEFC, size: 0x8, addend: 0x0, symName: '__ZNSt3__116allocator_traitsINS_9allocatorINS_10__function6__funcIZ4mainE3$_1NS1_IS4_EEFvvEEEEEE8max_sizeB8ne180100IS8_vEEmRKS8_', symObjAddr: 0x3E10, symBinAddr: 0x100005874, symSize: 0x24 }
  - { offset: 0xFF2A, size: 0x8, addend: 0x0, symName: '__ZNKSt3__19allocatorINS_10__function6__funcIZ4mainE3$_1NS0_IS3_EEFvvEEEE8max_sizeB8ne180100Ev', symObjAddr: 0x3E34, symBinAddr: 0x100005898, symSize: 0x14 }
  - { offset: 0xFF50, size: 0x8, addend: 0x0, symName: '__ZNSt3__122__allocator_destructorINS_9allocatorINS_10__function6__funcIZ4mainE3$_1NS1_IS4_EEFvvEEEEEEC2B8ne180100ERS8_m', symObjAddr: 0x3E48, symBinAddr: 0x1000058AC, symSize: 0x2C }
  - { offset: 0xFF96, size: 0x8, addend: 0x0, symName: '__ZNSt3__110unique_ptrINS_10__function6__funcIZ4mainE3$_1NS_9allocatorIS3_EEFvvEEENS_22__allocator_destructorINS4_IS7_EEEEEC2B8ne180100ILb1EvEEPS7_NS_16__dependent_typeINS_27__unique_ptr_deleter_sfinaeISA_EEXT_EE20__good_rval_ref_typeE', symObjAddr: 0x3E74, symBinAddr: 0x1000058D8, symSize: 0x48 }
  - { offset: 0xFFE7, size: 0x8, addend: 0x0, symName: '__ZNSt3__117__compressed_pairIPNS_10__function6__funcIZ4mainE3$_1NS_9allocatorIS3_EEFvvEEENS_22__allocator_destructorINS4_IS7_EEEEEC1B8ne180100IRS8_SB_EEOT_OT0_', symObjAddr: 0x3EBC, symBinAddr: 0x100005920, symSize: 0x3C }
  - { offset: 0x1003F, size: 0x8, addend: 0x0, symName: '__ZNSt3__117__compressed_pairIPNS_10__function6__funcIZ4mainE3$_1NS_9allocatorIS3_EEFvvEEENS_22__allocator_destructorINS4_IS7_EEEEEC2B8ne180100IRS8_SB_EEOT_OT0_', symObjAddr: 0x3EF8, symBinAddr: 0x10000595C, symSize: 0x48 }
  - { offset: 0x10097, size: 0x8, addend: 0x0, symName: '__ZNSt3__122__compressed_pair_elemIPNS_10__function6__funcIZ4mainE3$_1NS_9allocatorIS3_EEFvvEEELi0ELb0EEC2B8ne180100IRS8_vEEOT_', symObjAddr: 0x3F40, symBinAddr: 0x1000059A4, symSize: 0x24 }
  - { offset: 0x100D9, size: 0x8, addend: 0x0, symName: '__ZNSt3__122__compressed_pair_elemINS_22__allocator_destructorINS_9allocatorINS_10__function6__funcIZ4mainE3$_1NS2_IS5_EEFvvEEEEEEELi1ELb0EEC2B8ne180100ISA_vEEOT_', symObjAddr: 0x3F64, symBinAddr: 0x1000059C8, symSize: 0x24 }
  - { offset: 0x1011B, size: 0x8, addend: 0x0, symName: '__ZNKSt3__117__compressed_pairIPNS_10__function6__funcIZ4mainE3$_1NS_9allocatorIS3_EEFvvEEENS_22__allocator_destructorINS4_IS7_EEEEE5firstB8ne180100Ev', symObjAddr: 0x3F88, symBinAddr: 0x1000059EC, symSize: 0x24 }
  - { offset: 0x10141, size: 0x8, addend: 0x0, symName: '__ZNKSt3__122__compressed_pair_elemIPNS_10__function6__funcIZ4mainE3$_1NS_9allocatorIS3_EEFvvEEELi0ELb0EE5__getB8ne180100Ev', symObjAddr: 0x3FAC, symBinAddr: 0x100005A10, symSize: 0x14 }
  - { offset: 0x10167, size: 0x8, addend: 0x0, symName: '__ZNKSt3__117__compressed_pairIZ4mainE3$_1NS_9allocatorIS1_EEE5firstB8ne180100Ev', symObjAddr: 0x3FC0, symBinAddr: 0x100005A24, symSize: 0x24 }
  - { offset: 0x1018D, size: 0x8, addend: 0x0, symName: '__ZNKSt3__122__compressed_pair_elemIZ4mainE3$_1Li0ELb0EE5__getB8ne180100Ev', symObjAddr: 0x3FE4, symBinAddr: 0x100005A48, symSize: 0x14 }
  - { offset: 0x101B3, size: 0x8, addend: 0x0, symName: '__ZNSt3__110__function6__funcIZ4mainE3$_1NS_9allocatorIS2_EEFvvEEC2B8ne180100ERKS2_OS4_', symObjAddr: 0x3FF8, symBinAddr: 0x100005A5C, symSize: 0x80 }
  - { offset: 0x101FB, size: 0x8, addend: 0x0, symName: '__ZNSt3__110__function12__alloc_funcIZ4mainE3$_1NS_9allocatorIS2_EEFvvEEC1B8ne180100ERKS2_OS4_', symObjAddr: 0x4078, symBinAddr: 0x100005ADC, symSize: 0x3C }
  - { offset: 0x10241, size: 0x8, addend: 0x0, symName: '__ZNSt3__110__function12__alloc_funcIZ4mainE3$_1NS_9allocatorIS2_EEFvvEEC2B8ne180100ERKS2_OS4_', symObjAddr: 0x40B4, symBinAddr: 0x100005B18, symSize: 0x5C }
  - { offset: 0x10287, size: 0x8, addend: 0x0, symName: '__ZNSt3__117__compressed_pairIZ4mainE3$_1NS_9allocatorIS1_EEEC1B8ne180100IJRKS1_EJOS3_EEENS_21piecewise_construct_tENS_5tupleIJDpT_EEENSA_IJDpT0_EEE', symObjAddr: 0x413C, symBinAddr: 0x100005BA0, symSize: 0x3C }
  - { offset: 0x102F1, size: 0x8, addend: 0x0, symName: '__ZNSt3__15tupleIJRKZ4mainE3$_1EEC1B8ne180100INS_4_AndELi0EEES3_', symObjAddr: 0x4178, symBinAddr: 0x100005BDC, symSize: 0x34 }
  - { offset: 0x10339, size: 0x8, addend: 0x0, symName: '__ZNSt3__15tupleIJRKZ4mainE3$_1EEC2B8ne180100INS_4_AndELi0EEES3_', symObjAddr: 0x41AC, symBinAddr: 0x100005C10, symSize: 0x34 }
  - { offset: 0x10381, size: 0x8, addend: 0x0, symName: '__ZNSt3__112__tuple_implINS_15__tuple_indicesIJLm0EEEEJRKZ4mainE3$_1EEC1B8ne180100IJLm0EEJS5_EJEJEJS5_EEENS1_IJXspT_EEEENS_13__tuple_typesIJDpT0_EEENS1_IJXspT1_EEEENS9_IJDpT2_EEEDpOT3_', symObjAddr: 0x41E0, symBinAddr: 0x100005C44, symSize: 0x34 }
  - { offset: 0x10416, size: 0x8, addend: 0x0, symName: '__ZNSt3__112__tuple_implINS_15__tuple_indicesIJLm0EEEEJRKZ4mainE3$_1EEC2B8ne180100IJLm0EEJS5_EJEJEJS5_EEENS1_IJXspT_EEEENS_13__tuple_typesIJDpT0_EEENS1_IJXspT1_EEEENS9_IJDpT2_EEEDpOT3_', symObjAddr: 0x4214, symBinAddr: 0x100005C78, symSize: 0x34 }
  - { offset: 0x104AB, size: 0x8, addend: 0x0, symName: '__ZNSt3__112__tuple_leafILm0ERKZ4mainE3$_1Lb0EEC2B8ne180100IS3_vEEOT_', symObjAddr: 0x4248, symBinAddr: 0x100005CAC, symSize: 0x20 }
  - { offset: 0x104EE, size: 0x8, addend: 0x0, symName: '__ZNSt3__117__compressed_pairIZ4mainE3$_1NS_9allocatorIS1_EEEC2B8ne180100IJRKS1_EJOS3_EEENS_21piecewise_construct_tENS_5tupleIJDpT_EEENSA_IJDpT0_EEE', symObjAddr: 0x4268, symBinAddr: 0x100005CCC, symSize: 0x54 }
  - { offset: 0x10558, size: 0x8, addend: 0x0, symName: '__ZNSt3__122__compressed_pair_elemIZ4mainE3$_1Li0ELb0EEC2B8ne180100IJRKS1_EJLm0EEEENS_21piecewise_construct_tENS_5tupleIJDpT_EEENS_15__tuple_indicesIJXspT0_EEEE', symObjAddr: 0x42BC, symBinAddr: 0x100005D20, symSize: 0x44 }
  - { offset: 0x105BB, size: 0x8, addend: 0x0, symName: '__ZNSt3__112__tuple_leafILm0ERKZ4mainE3$_1Lb0EE3getB8ne180100Ev', symObjAddr: 0x4324, symBinAddr: 0x100005D88, symSize: 0x18 }
  - { offset: 0x105E1, size: 0x8, addend: 0x0, symName: '__ZNSt3__117__compressed_pairIPNS_10__function6__funcIZ4mainE3$_1NS_9allocatorIS3_EEFvvEEENS_22__allocator_destructorINS4_IS7_EEEEE5firstB8ne180100Ev', symObjAddr: 0x433C, symBinAddr: 0x100005DA0, symSize: 0x24 }
  - { offset: 0x10607, size: 0x8, addend: 0x0, symName: '__ZNSt3__122__compressed_pair_elemIPNS_10__function6__funcIZ4mainE3$_1NS_9allocatorIS3_EEFvvEEELi0ELb0EE5__getB8ne180100Ev', symObjAddr: 0x4360, symBinAddr: 0x100005DC4, symSize: 0x14 }
  - { offset: 0x1062D, size: 0x8, addend: 0x0, symName: '__ZNSt3__110unique_ptrINS_10__function6__funcIZ4mainE3$_1NS_9allocatorIS3_EEFvvEEENS_22__allocator_destructorINS4_IS7_EEEEED2B8ne180100Ev', symObjAddr: 0x4374, symBinAddr: 0x100005DD8, symSize: 0x30 }
  - { offset: 0x10657, size: 0x8, addend: 0x0, symName: '__ZNSt3__110unique_ptrINS_10__function6__funcIZ4mainE3$_1NS_9allocatorIS3_EEFvvEEENS_22__allocator_destructorINS4_IS7_EEEEE5resetB8ne180100EPS7_', symObjAddr: 0x43A4, symBinAddr: 0x100005E08, symSize: 0x78 }
  - { offset: 0x1069B, size: 0x8, addend: 0x0, symName: '__ZNSt3__117__compressed_pairIPNS_10__function6__funcIZ4mainE3$_1NS_9allocatorIS3_EEFvvEEENS_22__allocator_destructorINS4_IS7_EEEEE6secondB8ne180100Ev', symObjAddr: 0x441C, symBinAddr: 0x100005E80, symSize: 0x28 }
  - { offset: 0x106C1, size: 0x8, addend: 0x0, symName: '__ZNSt3__122__allocator_destructorINS_9allocatorINS_10__function6__funcIZ4mainE3$_1NS1_IS4_EEFvvEEEEEEclB8ne180100EPS7_', symObjAddr: 0x4444, symBinAddr: 0x100005EA8, symSize: 0x34 }
  - { offset: 0x106F5, size: 0x8, addend: 0x0, symName: '__ZNSt3__122__compressed_pair_elemINS_22__allocator_destructorINS_9allocatorINS_10__function6__funcIZ4mainE3$_1NS2_IS5_EEFvvEEEEEEELi1ELb0EE5__getB8ne180100Ev', symObjAddr: 0x4478, symBinAddr: 0x100005EDC, symSize: 0x14 }
  - { offset: 0x1071B, size: 0x8, addend: 0x0, symName: '__ZNSt3__116allocator_traitsINS_9allocatorINS_10__function6__funcIZ4mainE3$_1NS1_IS4_EEFvvEEEEEE10deallocateB8ne180100ERS8_PS7_m', symObjAddr: 0x448C, symBinAddr: 0x100005EF0, symSize: 0x34 }
  - { offset: 0x1075D, size: 0x8, addend: 0x0, symName: '__ZNSt3__19allocatorINS_10__function6__funcIZ4mainE3$_1NS0_IS3_EEFvvEEEE10deallocateB8ne180100EPS6_m', symObjAddr: 0x44C0, symBinAddr: 0x100005F24, symSize: 0x40 }
  - { offset: 0x1079F, size: 0x8, addend: 0x0, symName: '__ZNSt3__110__function6__funcIZ4mainE3$_1NS_9allocatorIS2_EEFvvEEC1B8ne180100ERKS2_RKS4_', symObjAddr: 0x4500, symBinAddr: 0x100005F64, symSize: 0x3C }
  - { offset: 0x107E7, size: 0x8, addend: 0x0, symName: '__ZNSt3__110__function6__funcIZ4mainE3$_1NS_9allocatorIS2_EEFvvEEC2B8ne180100ERKS2_RKS4_', symObjAddr: 0x453C, symBinAddr: 0x100005FA0, symSize: 0x80 }
  - { offset: 0x1082F, size: 0x8, addend: 0x0, symName: '__ZNSt3__110__function12__alloc_funcIZ4mainE3$_1NS_9allocatorIS2_EEFvvEEC1B8ne180100ERKS2_RKS4_', symObjAddr: 0x45BC, symBinAddr: 0x100006020, symSize: 0x3C }
  - { offset: 0x10875, size: 0x8, addend: 0x0, symName: '__ZNSt3__110__function12__alloc_funcIZ4mainE3$_1NS_9allocatorIS2_EEFvvEEC2B8ne180100ERKS2_RKS4_', symObjAddr: 0x45F8, symBinAddr: 0x10000605C, symSize: 0x5C }
  - { offset: 0x108BB, size: 0x8, addend: 0x0, symName: '__ZNSt3__117__compressed_pairIZ4mainE3$_1NS_9allocatorIS1_EEEC1B8ne180100IJRKS1_EJRKS3_EEENS_21piecewise_construct_tENS_5tupleIJDpT_EEENSB_IJDpT0_EEE', symObjAddr: 0x4680, symBinAddr: 0x1000060E4, symSize: 0x3C }
  - { offset: 0x10925, size: 0x8, addend: 0x0, symName: '__ZNSt3__15tupleIJRKNS_9allocatorIZ4mainE3$_1EEEEC1B8ne180100INS_4_AndELi0EEES5_', symObjAddr: 0x46BC, symBinAddr: 0x100006120, symSize: 0x34 }
  - { offset: 0x1096D, size: 0x8, addend: 0x0, symName: '__ZNSt3__15tupleIJRKNS_9allocatorIZ4mainE3$_1EEEEC2B8ne180100INS_4_AndELi0EEES5_', symObjAddr: 0x46F0, symBinAddr: 0x100006154, symSize: 0x34 }
  - { offset: 0x109B5, size: 0x8, addend: 0x0, symName: '__ZNSt3__112__tuple_implINS_15__tuple_indicesIJLm0EEEEJRKNS_9allocatorIZ4mainE3$_1EEEEC1B8ne180100IJLm0EEJS7_EJEJEJS7_EEENS1_IJXspT_EEEENS_13__tuple_typesIJDpT0_EEENS1_IJXspT1_EEEENSB_IJDpT2_EEEDpOT3_', symObjAddr: 0x4724, symBinAddr: 0x100006188, symSize: 0x34 }
  - { offset: 0x10A4A, size: 0x8, addend: 0x0, symName: '__ZNSt3__112__tuple_implINS_15__tuple_indicesIJLm0EEEEJRKNS_9allocatorIZ4mainE3$_1EEEEC2B8ne180100IJLm0EEJS7_EJEJEJS7_EEENS1_IJXspT_EEEENS_13__tuple_typesIJDpT0_EEENS1_IJXspT1_EEEENSB_IJDpT2_EEEDpOT3_', symObjAddr: 0x4758, symBinAddr: 0x1000061BC, symSize: 0x34 }
  - { offset: 0x10ADF, size: 0x8, addend: 0x0, symName: '__ZNSt3__112__tuple_leafILm0ERKNS_9allocatorIZ4mainE3$_1EELb0EEC2B8ne180100IS5_vEEOT_', symObjAddr: 0x478C, symBinAddr: 0x1000061F0, symSize: 0x20 }
  - { offset: 0x10B22, size: 0x8, addend: 0x0, symName: '__ZNSt3__117__compressed_pairIZ4mainE3$_1NS_9allocatorIS1_EEEC2B8ne180100IJRKS1_EJRKS3_EEENS_21piecewise_construct_tENS_5tupleIJDpT_EEENSB_IJDpT0_EEE', symObjAddr: 0x47AC, symBinAddr: 0x100006210, symSize: 0x54 }
  - { offset: 0x10B8C, size: 0x8, addend: 0x0, symName: '__ZNSt3__122__compressed_pair_elemINS_9allocatorIZ4mainE3$_1EELi1ELb1EEC2B8ne180100IJRKS3_EJLm0EEEENS_21piecewise_construct_tENS_5tupleIJDpT_EEENS_15__tuple_indicesIJXspT0_EEEE', symObjAddr: 0x4800, symBinAddr: 0x100006264, symSize: 0x38 }
  - { offset: 0x10BEF, size: 0x8, addend: 0x0, symName: '__ZNSt3__112__tuple_leafILm0ERKNS_9allocatorIZ4mainE3$_1EELb0EE3getB8ne180100Ev', symObjAddr: 0x485C, symBinAddr: 0x1000062C0, symSize: 0x18 }
  - { offset: 0x10C15, size: 0x8, addend: 0x0, symName: '__ZNSt3__110__function12__alloc_funcIZ4mainE3$_1NS_9allocatorIS2_EEFvvEE7destroyB8ne180100Ev', symObjAddr: 0x4874, symBinAddr: 0x1000062D8, symSize: 0x10 }
  - { offset: 0x10C3B, size: 0x8, addend: 0x0, symName: '__ZNSt3__110__function12__alloc_funcIZ4mainE3$_1NS_9allocatorIS2_EEFvvEEclB8ne180100Ev', symObjAddr: 0x4884, symBinAddr: 0x1000062E8, symSize: 0x28 }
  - { offset: 0x10C61, size: 0x8, addend: 0x0, symName: '__ZNSt3__128__invoke_void_return_wrapperIvLb1EE6__callB8ne180100IJRZ4mainE3$_1EEEvDpOT_', symObjAddr: 0x48AC, symBinAddr: 0x100006310, symSize: 0x24 }
  - { offset: 0x10C90, size: 0x8, addend: 0x0, symName: '__ZNSt3__117__compressed_pairIZ4mainE3$_1NS_9allocatorIS1_EEE5firstB8ne180100Ev', symObjAddr: 0x48D0, symBinAddr: 0x100006334, symSize: 0x24 }
  - { offset: 0x10CB6, size: 0x8, addend: 0x0, symName: '__ZZ4mainENK3$_1clEv', symObjAddr: 0x4918, symBinAddr: 0x10000637C, symSize: 0x28 }
  - { offset: 0x10CE0, size: 0x8, addend: 0x0, symName: __ZN6FooBar8printBarEv, symObjAddr: 0x4940, symBinAddr: 0x1000063A4, symSize: 0x30 }
  - { offset: 0x10D06, size: 0x8, addend: 0x0, symName: '__ZNSt3__122__compressed_pair_elemIZ4mainE3$_1Li0ELb0EE5__getB8ne180100Ev', symObjAddr: 0x4970, symBinAddr: 0x1000063D4, symSize: 0x14 }
  - { offset: 0x10D2C, size: 0x8, addend: 0x0, symName: __ZNSt3__16threadC2IM6FooBarFvNS_8functionIFvvEEEEJPS2_RS5_EvEEOT_DpOT0_, symObjAddr: 0x4984, symBinAddr: 0x1000063E8, symSize: 0x178 }
  - { offset: 0x10DCD, size: 0x8, addend: 0x0, symName: __ZNSt3__110unique_ptrINS_15__thread_structENS_14default_deleteIS1_EEEC1B8ne180100ILb1EvEEPS1_, symObjAddr: 0x4AFC, symBinAddr: 0x100006560, symSize: 0x34 }
  - { offset: 0x10E10, size: 0x8, addend: 0x0, symName: __ZNSt3__15tupleIJNS_10unique_ptrINS_15__thread_structENS_14default_deleteIS2_EEEEM6FooBarFvNS_8functionIFvvEEEEPS6_S9_EEC1B8ne180100IJS5_SB_SC_RS9_ELi0EEEDpOT_, symObjAddr: 0x4B30, symBinAddr: 0x100006594, symSize: 0x4C }
  - { offset: 0x10F3D, size: 0x8, addend: 0x0, symName: __ZNSt3__110unique_ptrINS_5tupleIJNS0_INS_15__thread_structENS_14default_deleteIS2_EEEEM6FooBarFvNS_8functionIFvvEEEEPS6_S9_EEENS3_ISD_EEEC1B8ne180100ILb1EvEEPSD_, symObjAddr: 0x4B7C, symBinAddr: 0x1000065E0, symSize: 0x34 }
  - { offset: 0x10F80, size: 0x8, addend: 0x0, symName: __ZNKSt3__110unique_ptrINS_5tupleIJNS0_INS_15__thread_structENS_14default_deleteIS2_EEEEM6FooBarFvNS_8functionIFvvEEEEPS6_S9_EEENS3_ISD_EEE3getB8ne180100Ev, symObjAddr: 0x4C78, symBinAddr: 0x1000066DC, symSize: 0x28 }
  - { offset: 0x10FA6, size: 0x8, addend: 0x0, symName: __ZNSt3__110unique_ptrINS_5tupleIJNS0_INS_15__thread_structENS_14default_deleteIS2_EEEEM6FooBarFvNS_8functionIFvvEEEEPS6_S9_EEENS3_ISD_EEE7releaseB8ne180100Ev, symObjAddr: 0x4CA0, symBinAddr: 0x100006704, symSize: 0x44 }
  - { offset: 0x10FDB, size: 0x8, addend: 0x0, symName: __ZNSt3__110unique_ptrINS_5tupleIJNS0_INS_15__thread_structENS_14default_deleteIS2_EEEEM6FooBarFvNS_8functionIFvvEEEEPS6_S9_EEENS3_ISD_EEED1B8ne180100Ev, symObjAddr: 0x4CE4, symBinAddr: 0x100006748, symSize: 0x2C }
  - { offset: 0x11005, size: 0x8, addend: 0x0, symName: __ZNSt3__110unique_ptrINS_15__thread_structENS_14default_deleteIS1_EEED1B8ne180100Ev, symObjAddr: 0x4D10, symBinAddr: 0x100006774, symSize: 0x2C }
  - { offset: 0x1102F, size: 0x8, addend: 0x0, symName: __ZNSt3__110unique_ptrINS_15__thread_structENS_14default_deleteIS1_EEEC2B8ne180100ILb1EvEEPS1_, symObjAddr: 0x4D3C, symBinAddr: 0x1000067A0, symSize: 0x44 }
  - { offset: 0x11078, size: 0x8, addend: 0x0, symName: __ZNSt3__117__compressed_pairIPNS_15__thread_structENS_14default_deleteIS1_EEEC1B8ne180100IRS2_NS_16__value_init_tagEEEOT_OT0_, symObjAddr: 0x4D80, symBinAddr: 0x1000067E4, symSize: 0x3C }
  - { offset: 0x110D0, size: 0x8, addend: 0x0, symName: __ZNSt3__117__compressed_pairIPNS_15__thread_structENS_14default_deleteIS1_EEEC2B8ne180100IRS2_NS_16__value_init_tagEEEOT_OT0_, symObjAddr: 0x4DBC, symBinAddr: 0x100006820, symSize: 0x40 }
  - { offset: 0x11128, size: 0x8, addend: 0x0, symName: __ZNSt3__122__compressed_pair_elemIPNS_15__thread_structELi0ELb0EEC2B8ne180100IRS2_vEEOT_, symObjAddr: 0x4DFC, symBinAddr: 0x100006860, symSize: 0x24 }
  - { offset: 0x1116A, size: 0x8, addend: 0x0, symName: __ZNSt3__122__compressed_pair_elemINS_14default_deleteINS_15__thread_structEEELi1ELb1EEC2B8ne180100ENS_16__value_init_tagE, symObjAddr: 0x4E20, symBinAddr: 0x100006884, symSize: 0x14 }
  - { offset: 0x1119E, size: 0x8, addend: 0x0, symName: __ZNSt3__15tupleIJNS_10unique_ptrINS_15__thread_structENS_14default_deleteIS2_EEEEM6FooBarFvNS_8functionIFvvEEEEPS6_S9_EEC2B8ne180100IJS5_SB_SC_RS9_ELi0EEEDpOT_, symObjAddr: 0x4E34, symBinAddr: 0x100006898, symSize: 0x4C }
  - { offset: 0x11224, size: 0x8, addend: 0x0, symName: __ZNSt3__112__tuple_implINS_15__tuple_indicesIJLm0ELm1ELm2ELm3EEEEJNS_10unique_ptrINS_15__thread_structENS_14default_deleteIS4_EEEEM6FooBarFvNS_8functionIFvvEEEEPS8_SB_EEC1B8ne180100IJLm0ELm1ELm2ELm3EEJS7_SD_SE_SB_EJEJEJS7_SD_SE_RSB_EEENS1_IJXspT_EEEENS_13__tuple_typesIJDpT0_EEENS1_IJXspT1_EEEENSJ_IJDpT2_EEEDpOT3_, symObjAddr: 0x4E80, symBinAddr: 0x1000068E4, symSize: 0x4C }
  - { offset: 0x11316, size: 0x8, addend: 0x0, symName: __ZNSt3__112__tuple_implINS_15__tuple_indicesIJLm0ELm1ELm2ELm3EEEEJNS_10unique_ptrINS_15__thread_structENS_14default_deleteIS4_EEEEM6FooBarFvNS_8functionIFvvEEEEPS8_SB_EEC2B8ne180100IJLm0ELm1ELm2ELm3EEJS7_SD_SE_SB_EJEJEJS7_SD_SE_RSB_EEENS1_IJXspT_EEEENS_13__tuple_typesIJDpT0_EEENS1_IJXspT1_EEEENSJ_IJDpT2_EEEDpOT3_, symObjAddr: 0x4ECC, symBinAddr: 0x100006930, symSize: 0x98 }
  - { offset: 0x11408, size: 0x8, addend: 0x0, symName: __ZNSt3__112__tuple_leafILm0ENS_10unique_ptrINS_15__thread_structENS_14default_deleteIS2_EEEELb0EEC2B8ne180100IS5_vEEOT_, symObjAddr: 0x4F64, symBinAddr: 0x1000069C8, symSize: 0x34 }
  - { offset: 0x1144B, size: 0x8, addend: 0x0, symName: __ZNSt3__112__tuple_leafILm1EM6FooBarFvNS_8functionIFvvEEEELb0EEC2B8ne180100IS6_vEEOT_, symObjAddr: 0x4F98, symBinAddr: 0x1000069FC, symSize: 0x2C }
  - { offset: 0x1148E, size: 0x8, addend: 0x0, symName: __ZNSt3__112__tuple_leafILm2EP6FooBarLb0EEC2B8ne180100IS2_vEEOT_, symObjAddr: 0x4FC4, symBinAddr: 0x100006A28, symSize: 0x24 }
  - { offset: 0x114D1, size: 0x8, addend: 0x0, symName: __ZNSt3__112__tuple_leafILm3ENS_8functionIFvvEEELb0EEC2B8ne180100IRS3_vEEOT_, symObjAddr: 0x4FE8, symBinAddr: 0x100006A4C, symSize: 0x34 }
  - { offset: 0x11514, size: 0x8, addend: 0x0, symName: __ZNSt3__112__tuple_leafILm0ENS_10unique_ptrINS_15__thread_structENS_14default_deleteIS2_EEEELb0EED2Ev, symObjAddr: 0x501C, symBinAddr: 0x100006A80, symSize: 0x2C }
  - { offset: 0x11541, size: 0x8, addend: 0x0, symName: __ZNSt3__110unique_ptrINS_15__thread_structENS_14default_deleteIS1_EEEC1B8ne180100EOS4_, symObjAddr: 0x5048, symBinAddr: 0x100006AAC, symSize: 0x34 }
  - { offset: 0x11579, size: 0x8, addend: 0x0, symName: __ZNSt3__110unique_ptrINS_15__thread_structENS_14default_deleteIS1_EEEC2B8ne180100EOS4_, symObjAddr: 0x507C, symBinAddr: 0x100006AE0, symSize: 0x60 }
  - { offset: 0x115B1, size: 0x8, addend: 0x0, symName: __ZNSt3__110unique_ptrINS_15__thread_structENS_14default_deleteIS1_EEE7releaseB8ne180100Ev, symObjAddr: 0x50DC, symBinAddr: 0x100006B40, symSize: 0x44 }
  - { offset: 0x115E6, size: 0x8, addend: 0x0, symName: __ZNSt3__110unique_ptrINS_15__thread_structENS_14default_deleteIS1_EEE11get_deleterB8ne180100Ev, symObjAddr: 0x5120, symBinAddr: 0x100006B84, symSize: 0x24 }
  - { offset: 0x11618, size: 0x8, addend: 0x0, symName: __ZNSt3__117__compressed_pairIPNS_15__thread_structENS_14default_deleteIS1_EEEC1B8ne180100IS2_S4_EEOT_OT0_, symObjAddr: 0x5144, symBinAddr: 0x100006BA8, symSize: 0x3C }
  - { offset: 0x11670, size: 0x8, addend: 0x0, symName: __ZNSt3__117__compressed_pairIPNS_15__thread_structENS_14default_deleteIS1_EEE5firstB8ne180100Ev, symObjAddr: 0x5180, symBinAddr: 0x100006BE4, symSize: 0x24 }
  - { offset: 0x11696, size: 0x8, addend: 0x0, symName: __ZNSt3__122__compressed_pair_elemIPNS_15__thread_structELi0ELb0EE5__getB8ne180100Ev, symObjAddr: 0x51A4, symBinAddr: 0x100006C08, symSize: 0x14 }
  - { offset: 0x116BC, size: 0x8, addend: 0x0, symName: __ZNSt3__117__compressed_pairIPNS_15__thread_structENS_14default_deleteIS1_EEE6secondB8ne180100Ev, symObjAddr: 0x51B8, symBinAddr: 0x100006C1C, symSize: 0x24 }
  - { offset: 0x116E2, size: 0x8, addend: 0x0, symName: __ZNSt3__122__compressed_pair_elemINS_14default_deleteINS_15__thread_structEEELi1ELb1EE5__getB8ne180100Ev, symObjAddr: 0x51DC, symBinAddr: 0x100006C40, symSize: 0x14 }
  - { offset: 0x11708, size: 0x8, addend: 0x0, symName: __ZNSt3__117__compressed_pairIPNS_15__thread_structENS_14default_deleteIS1_EEEC2B8ne180100IS2_S4_EEOT_OT0_, symObjAddr: 0x51F0, symBinAddr: 0x100006C54, symSize: 0x44 }
  - { offset: 0x11760, size: 0x8, addend: 0x0, symName: __ZNSt3__122__compressed_pair_elemIPNS_15__thread_structELi0ELb0EEC2B8ne180100IS2_vEEOT_, symObjAddr: 0x5234, symBinAddr: 0x100006C98, symSize: 0x24 }
  - { offset: 0x117A2, size: 0x8, addend: 0x0, symName: __ZNSt3__122__compressed_pair_elemINS_14default_deleteINS_15__thread_structEEELi1ELb1EEC2B8ne180100IS3_vEEOT_, symObjAddr: 0x5258, symBinAddr: 0x100006CBC, symSize: 0x18 }
  - { offset: 0x117E4, size: 0x8, addend: 0x0, symName: __ZNSt3__18functionIFvvEEC1ERKS2_, symObjAddr: 0x5270, symBinAddr: 0x100006CD4, symSize: 0x34 }
  - { offset: 0x1181F, size: 0x8, addend: 0x0, symName: __ZNSt3__18functionIFvvEEC2ERKS2_, symObjAddr: 0x52A4, symBinAddr: 0x100006D08, symSize: 0x34 }
  - { offset: 0x1185A, size: 0x8, addend: 0x0, symName: __ZNSt3__110__function12__value_funcIFvvEEC1B8ne180100ERKS3_, symObjAddr: 0x52D8, symBinAddr: 0x100006D3C, symSize: 0x34 }
  - { offset: 0x11893, size: 0x8, addend: 0x0, symName: __ZNSt3__110__function12__value_funcIFvvEEC2B8ne180100ERKS3_, symObjAddr: 0x530C, symBinAddr: 0x100006D70, symSize: 0xC0 }
  - { offset: 0x118CC, size: 0x8, addend: 0x0, symName: __ZNSt3__110__function12__value_funcIFvvEE9__as_baseB8ne180100EPv, symObjAddr: 0x53CC, symBinAddr: 0x100006E30, symSize: 0x14 }
  - { offset: 0x118F0, size: 0x8, addend: 0x0, symName: __ZNSt3__110unique_ptrINS_5tupleIJNS0_INS_15__thread_structENS_14default_deleteIS2_EEEEM6FooBarFvNS_8functionIFvvEEEEPS6_S9_EEENS3_ISD_EEEC2B8ne180100ILb1EvEEPSD_, symObjAddr: 0x53E0, symBinAddr: 0x100006E44, symSize: 0x44 }
  - { offset: 0x11933, size: 0x8, addend: 0x0, symName: __ZNSt3__117__compressed_pairIPNS_5tupleIJNS_10unique_ptrINS_15__thread_structENS_14default_deleteIS3_EEEEM6FooBarFvNS_8functionIFvvEEEEPS7_SA_EEENS4_ISE_EEEC1B8ne180100IRSF_NS_16__value_init_tagEEEOT_OT0_, symObjAddr: 0x5424, symBinAddr: 0x100006E88, symSize: 0x3C }
  - { offset: 0x1198B, size: 0x8, addend: 0x0, symName: __ZNSt3__117__compressed_pairIPNS_5tupleIJNS_10unique_ptrINS_15__thread_structENS_14default_deleteIS3_EEEEM6FooBarFvNS_8functionIFvvEEEEPS7_SA_EEENS4_ISE_EEEC2B8ne180100IRSF_NS_16__value_init_tagEEEOT_OT0_, symObjAddr: 0x5460, symBinAddr: 0x100006EC4, symSize: 0x40 }
  - { offset: 0x119E3, size: 0x8, addend: 0x0, symName: __ZNSt3__122__compressed_pair_elemIPNS_5tupleIJNS_10unique_ptrINS_15__thread_structENS_14default_deleteIS3_EEEEM6FooBarFvNS_8functionIFvvEEEEPS7_SA_EEELi0ELb0EEC2B8ne180100IRSF_vEEOT_, symObjAddr: 0x54A0, symBinAddr: 0x100006F04, symSize: 0x24 }
  - { offset: 0x11A25, size: 0x8, addend: 0x0, symName: __ZNSt3__122__compressed_pair_elemINS_14default_deleteINS_5tupleIJNS_10unique_ptrINS_15__thread_structENS1_IS4_EEEEM6FooBarFvNS_8functionIFvvEEEEPS7_SA_EEEEELi1ELb1EEC2B8ne180100ENS_16__value_init_tagE, symObjAddr: 0x54C4, symBinAddr: 0x100006F28, symSize: 0x14 }
  - { offset: 0x11A8C, size: 0x8, addend: 0x0, symName: __ZNSt3__121__thread_specific_ptrINS_15__thread_structEE11set_pointerEPS1_, symObjAddr: 0x54D8, symBinAddr: 0x100006F3C, symSize: 0x30 }
  - { offset: 0x11AC1, size: 0x8, addend: 0x0, symName: __ZNSt3__112__tuple_leafILm0ENS_10unique_ptrINS_15__thread_structENS_14default_deleteIS2_EEEELb0EE3getB8ne180100Ev, symObjAddr: 0x55A4, symBinAddr: 0x100007008, symSize: 0x14 }
  - { offset: 0x11AE7, size: 0x8, addend: 0x0, symName: __ZNSt3__18functionIFvvEEC1EOS2_, symObjAddr: 0x5740, symBinAddr: 0x1000071A4, symSize: 0x34 }
  - { offset: 0x11B22, size: 0x8, addend: 0x0, symName: __ZNSt3__18functionIFvvEEC2EOS2_, symObjAddr: 0x5774, symBinAddr: 0x1000071D8, symSize: 0x34 }
  - { offset: 0x11B5D, size: 0x8, addend: 0x0, symName: __ZNSt3__110__function12__value_funcIFvvEEC1B8ne180100EOS3_, symObjAddr: 0x57A8, symBinAddr: 0x10000720C, symSize: 0x34 }
  - { offset: 0x11B96, size: 0x8, addend: 0x0, symName: __ZNSt3__110__function12__value_funcIFvvEEC2B8ne180100EOS3_, symObjAddr: 0x57DC, symBinAddr: 0x100007240, symSize: 0xC4 }
  - { offset: 0x11BCF, size: 0x8, addend: 0x0, symName: __ZNSt3__112__tuple_leafILm1EM6FooBarFvNS_8functionIFvvEEEELb0EE3getB8ne180100Ev, symObjAddr: 0x58A0, symBinAddr: 0x100007304, symSize: 0x14 }
  - { offset: 0x11BF5, size: 0x8, addend: 0x0, symName: __ZNSt3__112__tuple_leafILm2EP6FooBarLb0EE3getB8ne180100Ev, symObjAddr: 0x58B4, symBinAddr: 0x100007318, symSize: 0x14 }
  - { offset: 0x11C1B, size: 0x8, addend: 0x0, symName: __ZNSt3__112__tuple_leafILm3ENS_8functionIFvvEEELb0EE3getB8ne180100Ev, symObjAddr: 0x58C8, symBinAddr: 0x10000732C, symSize: 0x14 }
  - { offset: 0x11C41, size: 0x8, addend: 0x0, symName: __ZNKSt3__117__compressed_pairIPNS_5tupleIJNS_10unique_ptrINS_15__thread_structENS_14default_deleteIS3_EEEEM6FooBarFvNS_8functionIFvvEEEEPS7_SA_EEENS4_ISE_EEE5firstB8ne180100Ev, symObjAddr: 0x58DC, symBinAddr: 0x100007340, symSize: 0x24 }
  - { offset: 0x11C67, size: 0x8, addend: 0x0, symName: __ZNKSt3__122__compressed_pair_elemIPNS_5tupleIJNS_10unique_ptrINS_15__thread_structENS_14default_deleteIS3_EEEEM6FooBarFvNS_8functionIFvvEEEEPS7_SA_EEELi0ELb0EE5__getB8ne180100Ev, symObjAddr: 0x5900, symBinAddr: 0x100007364, symSize: 0x14 }
  - { offset: 0x11C8D, size: 0x8, addend: 0x0, symName: __ZNSt3__117__compressed_pairIPNS_5tupleIJNS_10unique_ptrINS_15__thread_structENS_14default_deleteIS3_EEEEM6FooBarFvNS_8functionIFvvEEEEPS7_SA_EEENS4_ISE_EEE5firstB8ne180100Ev, symObjAddr: 0x5914, symBinAddr: 0x100007378, symSize: 0x24 }
  - { offset: 0x11CB3, size: 0x8, addend: 0x0, symName: __ZNSt3__122__compressed_pair_elemIPNS_5tupleIJNS_10unique_ptrINS_15__thread_structENS_14default_deleteIS3_EEEEM6FooBarFvNS_8functionIFvvEEEEPS7_SA_EEELi0ELb0EE5__getB8ne180100Ev, symObjAddr: 0x5938, symBinAddr: 0x10000739C, symSize: 0x14 }
  - { offset: 0x11CD9, size: 0x8, addend: 0x0, symName: __ZNSt3__110unique_ptrINS_5tupleIJNS0_INS_15__thread_structENS_14default_deleteIS2_EEEEM6FooBarFvNS_8functionIFvvEEEEPS6_S9_EEENS3_ISD_EEED2B8ne180100Ev, symObjAddr: 0x594C, symBinAddr: 0x1000073B0, symSize: 0x30 }
  - { offset: 0x11D03, size: 0x8, addend: 0x0, symName: __ZNSt3__110unique_ptrINS_5tupleIJNS0_INS_15__thread_structENS_14default_deleteIS2_EEEEM6FooBarFvNS_8functionIFvvEEEEPS6_S9_EEENS3_ISD_EEE5resetB8ne180100EPSD_, symObjAddr: 0x597C, symBinAddr: 0x1000073E0, symSize: 0x78 }
  - { offset: 0x11D47, size: 0x8, addend: 0x0, symName: __ZNSt3__117__compressed_pairIPNS_5tupleIJNS_10unique_ptrINS_15__thread_structENS_14default_deleteIS3_EEEEM6FooBarFvNS_8functionIFvvEEEEPS7_SA_EEENS4_ISE_EEE6secondB8ne180100Ev, symObjAddr: 0x59F4, symBinAddr: 0x100007458, symSize: 0x24 }
  - { offset: 0x11D6D, size: 0x8, addend: 0x0, symName: __ZNKSt3__114default_deleteINS_5tupleIJNS_10unique_ptrINS_15__thread_structENS0_IS3_EEEEM6FooBarFvNS_8functionIFvvEEEEPS6_S9_EEEEclB8ne180100EPSD_, symObjAddr: 0x5A18, symBinAddr: 0x10000747C, symSize: 0x4C }
  - { offset: 0x11DA1, size: 0x8, addend: 0x0, symName: __ZNSt3__122__compressed_pair_elemINS_14default_deleteINS_5tupleIJNS_10unique_ptrINS_15__thread_structENS1_IS4_EEEEM6FooBarFvNS_8functionIFvvEEEEPS7_SA_EEEEELi1ELb1EE5__getB8ne180100Ev, symObjAddr: 0x5A64, symBinAddr: 0x1000074C8, symSize: 0x14 }
  - { offset: 0x11DC7, size: 0x8, addend: 0x0, symName: __ZNSt3__15tupleIJNS_10unique_ptrINS_15__thread_structENS_14default_deleteIS2_EEEEM6FooBarFvNS_8functionIFvvEEEEPS6_S9_EED1Ev, symObjAddr: 0x5A78, symBinAddr: 0x1000074DC, symSize: 0x2C }
  - { offset: 0x11DF4, size: 0x8, addend: 0x0, symName: __ZNSt3__15tupleIJNS_10unique_ptrINS_15__thread_structENS_14default_deleteIS2_EEEEM6FooBarFvNS_8functionIFvvEEEEPS6_S9_EED2Ev, symObjAddr: 0x5AA4, symBinAddr: 0x100007508, symSize: 0x2C }
  - { offset: 0x11E21, size: 0x8, addend: 0x0, symName: __ZNSt3__112__tuple_implINS_15__tuple_indicesIJLm0ELm1ELm2ELm3EEEEJNS_10unique_ptrINS_15__thread_structENS_14default_deleteIS4_EEEEM6FooBarFvNS_8functionIFvvEEEEPS8_SB_EED1Ev, symObjAddr: 0x5AD0, symBinAddr: 0x100007534, symSize: 0x2C }
  - { offset: 0x11E4E, size: 0x8, addend: 0x0, symName: __ZNSt3__112__tuple_implINS_15__tuple_indicesIJLm0ELm1ELm2ELm3EEEEJNS_10unique_ptrINS_15__thread_structENS_14default_deleteIS4_EEEEM6FooBarFvNS_8functionIFvvEEEEPS8_SB_EED2Ev, symObjAddr: 0x5AFC, symBinAddr: 0x100007560, symSize: 0x38 }
  - { offset: 0x11E7B, size: 0x8, addend: 0x0, symName: __ZNSt3__112__tuple_leafILm3ENS_8functionIFvvEEELb0EED2Ev, symObjAddr: 0x5B34, symBinAddr: 0x100007598, symSize: 0x2C }
  - { offset: 0x11EA8, size: 0x8, addend: 0x0, symName: __ZNSt3__110unique_ptrINS_15__thread_structENS_14default_deleteIS1_EEED2B8ne180100Ev, symObjAddr: 0x5B60, symBinAddr: 0x1000075C4, symSize: 0x30 }
  - { offset: 0x11ED2, size: 0x8, addend: 0x0, symName: __ZNSt3__110unique_ptrINS_15__thread_structENS_14default_deleteIS1_EEE5resetB8ne180100EPS1_, symObjAddr: 0x5B90, symBinAddr: 0x1000075F4, symSize: 0x78 }
  - { offset: 0x11F16, size: 0x8, addend: 0x0, symName: __ZNKSt3__114default_deleteINS_15__thread_structEEclB8ne180100EPS1_, symObjAddr: 0x5C08, symBinAddr: 0x10000766C, symSize: 0x4C }
...
